(dp1
S'output'
p2
S"<type 'exceptions.NameError'> name 'empresa' is not defined"
p3
sS'layer'
p4
S'/Users/joselara/www/web2py/applications/randomwords/views/default/index.html'
p5
sS'code'
p6
S'response.write(\'<!DOCTYPE html>\\n<!-- paulirish.com/2008/conditional-stylesheets-vs-css-hacks-answer-neither/ -->\\n<!--[if lt IE 7]><html class="ie ie6 ie-lte9 ie-lte8 ie-lte7 no-js" lang="\', escape=False)\nresponse.write(T.accepted_language or \'en\')\nresponse.write(\'"> <![endif]-->\\n<!--[if IE 7]><html class="ie ie7 ie-lte9 ie-lte8 ie-lte7 no-js" lang="\', escape=False)\nresponse.write(T.accepted_language or \'en\')\nresponse.write(\'"> <![endif]-->\\n<!--[if IE 8]><html class="ie ie8 ie-lte9 ie-lte8 no-js" lang="\', escape=False)\nresponse.write(T.accepted_language or \'en\')\nresponse.write(\'"> <![endif]-->\\n<!--[if IE 9]><html class="ie9 ie-lte9 no-js" lang="\', escape=False)\nresponse.write(T.accepted_language or \'en\')\nresponse.write(\'"> <![endif]-->\\n<!--[if (gt IE 9)|!(IE)]><!--> <html class="no-js" lang="\', escape=False)\nresponse.write(T.accepted_language or \'en\')\nresponse.write(\'"> <!--<![endif]-->\\n<head>\\n  <meta charset="utf-8" />\\n  <!-- www.phpied.com/conditional-comments-block-downloads/ -->\\n  <!-- Always force latest IE rendering engine\\n\\t   (even in intranet) & Chrome Frame\\n\\t   Remove this if you use the .htaccess -->\\n  <!--[if IE]>\\n    <meta http-equiv="X-UA-Compatible" content="IE=edge\', escape=False)\nresponse.write(not request.is_local and \',chrome=1\' or \'\')\nresponse.write(\'">\\n  <![endif]-->\\n  \\n  <title>\', escape=False)\nresponse.write(response.title or request.application)\nresponse.write(\'</title>\\n  \\n  <link href=\\\'http://fonts.googleapis.com/css?family=Hammersmith+One\\\' rel=\\\'stylesheet\\\' type=\\\'text/css\\\'>\\n  \\n  <!-- http://dev.w3.org/html5/markup/meta.name.html -->\\n  <meta name="application-name" content="\', escape=False)\nresponse.write(request.application)\nresponse.write(\'" />\\n  \\n  <!-- Speaking of Google, don\\\'t forget to set your site up:\\n\\t   http://google.com/webmasters -->\\n  <meta name="google-site-verification" content="" />\\n\\n  <!--  Mobile Viewport Fix\\n\\t  j.mp/mobileviewport & davidbcalhoun.com/2010/viewport-metatag\\n\\t  device-width: Occupy full width of the screen in its current orientation\\n\\t  initial-scale = 1.0 retains dimensions instead of zooming out if page height > device height\\n\\t  user-scalable = yes allows the user to zoom in -->\\n  <meta name="viewport" content="width=device-width, initial-scale=1.0, user-scalable=yes">\\n  \\n  <!-- Place favicon.ico and apple-touch-icon.png in the root of your domain and delete these references -->\\n  <link rel="shortcut icon" href="\', escape=False)\nresponse.write(URL(\'static\',\'favicon.ico\'))\nresponse.write(\'" type="image/x-icon">\\n  <link rel="apple-touch-icon" href="\', escape=False)\nresponse.write(URL(\'static\',\'favicon.png\'))\nresponse.write(\'">\\n\\n  <!-- All JavaScript at the bottom, except for Modernizr which enables \\n\\t   HTML5 elements & feature detects -->\\n  <script src="\', escape=False)\nresponse.write(URL(\'static\',\'js/modernizr.custom.js\'))\nresponse.write(\'"></script>  \\n  <script type="text/javascript">\\n\\t  WebFontConfig = {\\n\\t    google: { families: [ \\\'Hammersmith+One::latin\\\' ] }\\n\\t  };\\n\\t  (function() {\\n\\t    var wf = document.createElement(\\\'script\\\');\\n\\t    wf.src = (\\\'https:\\\' == document.location.protocol ? \\\'https\\\' : \\\'http\\\') +\\n\\t      \\\'://ajax.googleapis.com/ajax/libs/webfont/1/webfont.js\\\';\\n\\t    wf.type = \\\'text/javascript\\\';\\n\\t    wf.async = \\\'true\\\';\\n\\t    var s = document.getElementsByTagName(\\\'script\\\')[0];\\n\\t    s.parentNode.insertBefore(wf, s);\\n\\t  })(); \\n  </script>\\n  <!-- include stylesheets -->\\n  \', escape=False)\nresponse.files.append(URL(\'static\',\'css/style.css\'))\nresponse.files.append(URL(\'static\',\'css/skeleton.css\'))\nresponse.files.append(URL(\'static\',\'css/web2py.css\'))\nif response.menu:\n    response.files.append(URL(\'static\',\'css/superfish.css\'))\n    response.files.append(URL(\'static\',\'js/superfish.js\'))\n    pass\nresponse.write(\'\\n\\n  \', escape=False)\nresponse.write(\'<script type="text/javascript"><!--\\n    // These variables are used by the web2py_ajax_init function in web2py_ajax.js (which is loaded below).\\n    var w2p_ajax_confirm_message = "\', escape=False)\nresponse.write(T(\'Are you sure you want to delete this object?\'))\nresponse.write(\'";\\n    var w2p_ajax_date_format = "\', escape=False)\nresponse.write(T(\'%Y-%m-%d\'))\nresponse.write(\'";\\n    var w2p_ajax_datetime_format = "\', escape=False)\nresponse.write(T(\'%Y-%m-%d %H:%M:%S\'))\nresponse.write(\'";\\n    //--></script>\\n\', escape=False)\nresponse.files.insert(0,URL(\'static\',\'js/jquery.js\'))\nresponse.files.insert(1,URL(\'static\',\'css/calendar.css\'))\nresponse.files.insert(2,URL(\'static\',\'js/calendar.js\'))\nresponse.files.insert(3,URL(\'static\',\'js/web2py.js\'))\nresponse.include_meta()\nresponse.include_files()\nresponse.write(\'\\n\', escape=False)\nresponse.write(\'\\n\\n  \', escape=False)\nif response.menu:\n    response.write(\'\\n  <script type="text/javascript">\\n    jQuery(function(){ jQuery(\\\'ul.sf-menu\\\').supersubs({minWidth:12,maxWidth:30,extraWidth:3}).superfish(); });\\n  </script>\\n  \', escape=False)\n    pass\nresponse.write(\'\\n\\n  \', escape=False)\n# using sidebars need to know what sidebar you want to use\nleft_sidebar_enabled = globals().get(\'left_sidebar_enabled\',False)\nright_sidebar_enabled = globals().get(\'right_sidebar_enabled\',False)\nmiddle_columns = {0:\'sixteen\',1:\'twelve\',2:\'eight\'}[\n(left_sidebar_enabled and 1 or 0)+(right_sidebar_enabled and 1 or 0)]\nresponse.write("\\n\\n    <script type=\'text/javascript\'>\\n        window.onload = function() {\\n            RandomWordComplete();\\n        }\\n\\n        function RandomWordComplete() {\\n            ajax(\'", escape=False)\nresponse.write(URL(\'data\'))\nresponse.write(\'\\\', [\\\'word\\\'],\\\'word\\\');\\n            setTimeout(RandomWordComplete, 4000);\\n        }\\n    </script>\\n\\n  <link rel="stylesheet" href="http://ajax.googleapis.com/ajax/libs/jqueryui/1.8.16/themes/base/jquery-ui.css" type="text/css" media="all" />\\n  <script src="http://ajax.googleapis.com/ajax/libs/jqueryui/1.8.16/jquery-ui.min.js" type="text/javascript"></script>\\n\\n</head>\\n<body>\\n  <div class="wrapper"><!-- for sticky footer -->\\n   \\n    <div class="main" style="margin:auto; width:960px;">\\n        \\n        <div class="empresa">\\n        \', escape=False)\nempresa\nresponse.write(\'\\n        </div>\\n        \\n        <div>\\n          \', escape=False)\nresponse.write(\'\\n          \', escape=False)\nresponse.write(\'\\n<div id="word" class="word"></div>\\n\\n\', escape=False)\nresponse.write(\'\\n          \', escape=False)\nresponse.write(\'\\n        </div>\\n        \\n      </div><!-- container -->\\n    </div><!-- main -->\\n    \\n  \\n  <!--[if lt IE 7 ]>\\n\\t<script src="\', escape=False)\nresponse.write(URL(\'static\',\'js/dd_belatedpng.js\'))\nresponse.write(\'"></script>\\n\\t<script> DD_belatedPNG.fix(\\\'img, .png_bg\\\'); //fix any <img> or .png_bg background-images </script>\\n\\t<![endif]-->\\n  \', escape=False)\nif response.google_analytics_id:\n    response.write(\'<script type="text/javascript"> var _gaq = _gaq || []; _gaq.push([\\\'_setAccount\\\', \\\'\', escape=False)\n    response.write(response.google_analytics_id)\n    response.write("\']); _gaq.push([\'_trackPageview\']); (function() { var ga = document.createElement(\'script\'); ga.type = \'text/javascript\'; ga.async = true; ga.src = (\'https:\' == document.location.protocol ? \'https://ssl\' : \'http://www\') + \'.google-analytics.com/ga.js\'; var s = document.getElementsByTagName(\'script\')[0]; s.parentNode.insertBefore(ga, s); })(); </script> ", escape=False)\n    pass\nresponse.write(\'\\n</body>\\n</html>\\n\', escape=False)'
p7
sS'snapshot'
p8
(dp9
S'exception'
p10
(dp11
S'__hash__'
p12
S"<method-wrapper '__hash__' of exceptions.NameError object>"
p13
sS'__setattr__'
p14
S"<method-wrapper '__setattr__' of exceptions.NameError object>"
p15
sS'__reduce_ex__'
p16
S'<built-in method __reduce_ex__ of exceptions.NameError object>'
p17
sS'__getslice__'
p18
S"<method-wrapper '__getslice__' of exceptions.NameError object>"
p19
sS'__getitem__'
p20
S"<method-wrapper '__getitem__' of exceptions.NameError object>"
p21
sS'__setstate__'
p22
S'<built-in method __setstate__ of exceptions.NameError object>'
p23
sS'args'
p24
S'("name \'empresa\' is not defined",)'
p25
sS'__reduce__'
p26
S'<built-in method __reduce__ of exceptions.NameError object>'
p27
sS'__str__'
p28
S"<method-wrapper '__str__' of exceptions.NameError object>"
p29
sS'__format__'
p30
S'<built-in method __format__ of exceptions.NameError object>'
p31
sS'__getattribute__'
p32
S"<method-wrapper '__getattribute__' of exceptions.NameError object>"
p33
sS'__class__'
p34
S"<type 'exceptions.NameError'>"
p35
sS'__unicode__'
p36
S'<built-in method __unicode__ of exceptions.NameError object>'
p37
sS'__delattr__'
p38
S"<method-wrapper '__delattr__' of exceptions.NameError object>"
p39
sS'__subclasshook__'
p40
S'<built-in method __subclasshook__ of type object>'
p41
sS'__repr__'
p42
S"<method-wrapper '__repr__' of exceptions.NameError object>"
p43
sS'__dict__'
p44
S'{}'
p45
sS'__sizeof__'
p46
S'<built-in method __sizeof__ of exceptions.NameError object>'
p47
sS'__doc__'
p48
S"'Name not found globally.'"
p49
sS'__init__'
p50
S"<method-wrapper '__init__' of exceptions.NameError object>"
p51
sS'__new__'
p52
S'<built-in method __new__ of type object>'
p53
ssS'evalue'
p54
S"name 'empresa' is not defined"
p55
sS'request'
p56
ccopy_reg
_reconstructor
p57
(cgluon.html
BEAUTIFY
p58
c__builtin__
object
p59
NtRp60
(dp61
S'attributes'
p62
(dp63
sS'components'
p64
(lp65
g57
(cgluon.html
TABLE
p66
g59
NtRp67
(dp68
g62
(dp69
S'level'
p70
I5
ssS'parent'
p71
Nsg64
(lp72
g57
(cgluon.html
TR
p73
g59
NtRp74
(dp75
g62
(dp76
sg71
g67
sg64
(lp77
g57
(cgluon.html
TD
p78
g59
NtRp79
(dp80
g62
(dp81
S'_style'
p82
S'font-weight:bold;vertical-align:top'
p83
ssg71
g74
sg64
(lp84
S'ajax'
p85
asbag57
(g78
g59
NtRp86
(dp87
g62
(dp88
S'_valign'
p89
S'top'
p90
ssg71
g74
sg64
(lp91
S':'
asbag57
(g78
g59
NtRp92
(dp93
g62
(dp94
sg71
g74
sg64
(lp95
g57
(g58
g59
NtRp96
(dp97
g62
(dp98
g70
I5
ssg71
g92
sg64
(lp99
S'False'
p100
asbasbasbag57
(g73
g59
NtRp101
(dp102
g62
(dp103
sg71
g67
sg64
(lp104
g57
(g78
g59
NtRp105
(dp106
g62
(dp107
g82
g83
ssg71
g101
sg64
(lp108
S'application'
p109
asbag57
(g78
g59
NtRp110
(dp111
g62
(dp112
g89
g90
ssg71
g101
sg64
(lp113
S':'
asbag57
(g78
g59
NtRp114
(dp115
g62
(dp116
sg71
g101
sg64
(lp117
g57
(g58
g59
NtRp118
(dp119
g62
(dp120
g70
I5
ssg71
g114
sg64
(lp121
S'randomwords'
p122
asbasbasbag57
(g73
g59
NtRp123
(dp124
g62
(dp125
sg71
g67
sg64
(lp126
g57
(g78
g59
NtRp127
(dp128
g62
(dp129
g82
g83
ssg71
g123
sg64
(lp130
g24
asbag57
(g78
g59
NtRp131
(dp132
g62
(dp133
g89
g90
ssg71
g123
sg64
(lp134
S':'
asbag57
(g78
g59
NtRp135
(dp136
g62
(dp137
sg71
g123
sg64
(lp138
g57
(g58
g59
NtRp139
(dp140
g62
(dp141
g70
I5
ssg71
g135
sg64
(lp142
g57
(g66
g59
NtRp143
(dp144
g62
(dp145
g70
I4
ssg71
Nsg64
(lp146
sbasbasbasbag57
(g73
g59
NtRp147
(dp148
g62
(dp149
sg71
g67
sg64
(lp150
g57
(g78
g59
NtRp151
(dp152
g62
(dp153
g82
g83
ssg71
g147
sg64
(lp154
S'body'
p155
asbag57
(g78
g59
NtRp156
(dp157
g62
(dp158
g89
g90
ssg71
g147
sg64
(lp159
S':'
asbag57
(g78
g59
NtRp160
(dp161
g62
(dp162
sg71
g147
sg64
(lp163
g57
(g58
g59
NtRp164
(dp165
g62
(dp166
g70
I5
ssg71
g160
sg64
(lp167
S'<cStringIO.StringO object at 0x10d7e52d0>'
p168
asbasbasbag57
(g73
g59
NtRp169
(dp170
g62
(dp171
sg71
g67
sg64
(lp172
g57
(g78
g59
NtRp173
(dp174
g62
(dp175
g82
g83
ssg71
g169
sg64
(lp176
S'cid'
p177
asbag57
(g78
g59
NtRp178
(dp179
g62
(dp180
g89
g90
ssg71
g169
sg64
(lp181
S':'
asbag57
(g78
g59
NtRp182
(dp183
g62
(dp184
sg71
g169
sg64
(lp185
g57
(g58
g59
NtRp186
(dp187
g62
(dp188
g70
I5
ssg71
g182
sg64
(lp189
S'None'
p190
asbasbasbag57
(g73
g59
NtRp191
(dp192
g62
(dp193
sg71
g67
sg64
(lp194
g57
(g78
g59
NtRp195
(dp196
g62
(dp197
g82
g83
ssg71
g191
sg64
(lp198
S'client'
p199
asbag57
(g78
g59
NtRp200
(dp201
g62
(dp202
g89
g90
ssg71
g191
sg64
(lp203
S':'
asbag57
(g78
g59
NtRp204
(dp205
g62
(dp206
sg71
g191
sg64
(lp207
g57
(g58
g59
NtRp208
(dp209
g62
(dp210
g70
I5
ssg71
g204
sg64
(lp211
S'127.0.0.1'
p212
asbasbasbag57
(g73
g59
NtRp213
(dp214
g62
(dp215
sg71
g67
sg64
(lp216
g57
(g78
g59
NtRp217
(dp218
g62
(dp219
g82
g83
ssg71
g213
sg64
(lp220
S'controller'
p221
asbag57
(g78
g59
NtRp222
(dp223
g62
(dp224
g89
g90
ssg71
g213
sg64
(lp225
S':'
asbag57
(g78
g59
NtRp226
(dp227
g62
(dp228
sg71
g213
sg64
(lp229
g57
(g58
g59
NtRp230
(dp231
g62
(dp232
g70
I5
ssg71
g226
sg64
(lp233
S'default'
p234
asbasbasbag57
(g73
g59
NtRp235
(dp236
g62
(dp237
sg71
g67
sg64
(lp238
g57
(g78
g59
NtRp239
(dp240
g62
(dp241
g82
g83
ssg71
g235
sg64
(lp242
S'cookies'
p243
asbag57
(g78
g59
NtRp244
(dp245
g62
(dp246
g89
g90
ssg71
g235
sg64
(lp247
S':'
asbag57
(g78
g59
NtRp248
(dp249
g62
(dp250
sg71
g235
sg64
(lp251
g57
(g58
g59
NtRp252
(dp253
g62
(dp254
g70
I5
ssg71
g248
sg64
(lp255
g57
(g66
g59
NtRp256
(dp257
g62
(dp258
g70
I4
ssg71
Nsg64
(lp259
g57
(g73
g59
NtRp260
(dp261
g62
(dp262
sg71
g256
sg64
(lp263
g57
(g78
g59
NtRp264
(dp265
g62
(dp266
g82
g83
ssg71
g260
sg64
(lp267
S'session_id_admin'
p268
asbag57
(g78
g59
NtRp269
(dp270
g62
(dp271
g89
g90
ssg71
g260
sg64
(lp272
S':'
asbag57
(g78
g59
NtRp273
(dp274
g62
(dp275
sg71
g260
sg64
(lp276
g57
(g58
g59
NtRp277
(dp278
g62
(dp279
g70
I4
ssg71
g273
sg64
(lp280
S'127.0.0.1-3ad56f0e-bc14-4410-b678-7c708c9d6393'
p281
ag57
(g66
g59
NtRp282
(dp283
g62
(dp284
g70
I3
ssg71
Nsg64
(lp285
g57
(g73
g59
NtRp286
(dp287
g62
(dp288
sg71
g282
sg64
(lp289
g57
(g78
g59
NtRp290
(dp291
g62
(dp292
g82
g83
ssg71
g286
sg64
(lp293
S'comment'
p294
asbag57
(g78
g59
NtRp295
(dp296
g62
(dp297
g89
g90
ssg71
g286
sg64
(lp298
S':'
asbag57
(g78
g59
NtRp299
(dp300
g62
(dp301
sg71
g286
sg64
(lp302
g57
(g58
g59
NtRp303
(dp304
g62
(dp305
g70
I3
ssg71
g299
sg64
(lp306
S''
asbasbasbag57
(g73
g59
NtRp307
(dp308
g62
(dp309
sg71
g282
sg64
(lp310
g57
(g78
g59
NtRp311
(dp312
g62
(dp313
g82
g83
ssg71
g307
sg64
(lp314
S'domain'
p315
asbag57
(g78
g59
NtRp316
(dp317
g62
(dp318
g89
g90
ssg71
g307
sg64
(lp319
S':'
asbag57
(g78
g59
NtRp320
(dp321
g62
(dp322
sg71
g307
sg64
(lp323
g57
(g58
g59
NtRp324
(dp325
g62
(dp326
g70
I3
ssg71
g320
sg64
(lp327
S''
asbasbasbag57
(g73
g59
NtRp328
(dp329
g62
(dp330
sg71
g282
sg64
(lp331
g57
(g78
g59
NtRp332
(dp333
g62
(dp334
g82
g83
ssg71
g328
sg64
(lp335
S'expires'
p336
asbag57
(g78
g59
NtRp337
(dp338
g62
(dp339
g89
g90
ssg71
g328
sg64
(lp340
S':'
asbag57
(g78
g59
NtRp341
(dp342
g62
(dp343
sg71
g328
sg64
(lp344
g57
(g58
g59
NtRp345
(dp346
g62
(dp347
g70
I3
ssg71
g341
sg64
(lp348
S''
asbasbasbag57
(g73
g59
NtRp349
(dp350
g62
(dp351
sg71
g282
sg64
(lp352
g57
(g78
g59
NtRp353
(dp354
g62
(dp355
g82
g83
ssg71
g349
sg64
(lp356
S'httponly'
p357
asbag57
(g78
g59
NtRp358
(dp359
g62
(dp360
g89
g90
ssg71
g349
sg64
(lp361
S':'
asbag57
(g78
g59
NtRp362
(dp363
g62
(dp364
sg71
g349
sg64
(lp365
g57
(g58
g59
NtRp366
(dp367
g62
(dp368
g70
I3
ssg71
g362
sg64
(lp369
S''
asbasbasbag57
(g73
g59
NtRp370
(dp371
g62
(dp372
sg71
g282
sg64
(lp373
g57
(g78
g59
NtRp374
(dp375
g62
(dp376
g82
g83
ssg71
g370
sg64
(lp377
S'max-age'
p378
asbag57
(g78
g59
NtRp379
(dp380
g62
(dp381
g89
g90
ssg71
g370
sg64
(lp382
S':'
asbag57
(g78
g59
NtRp383
(dp384
g62
(dp385
sg71
g370
sg64
(lp386
g57
(g58
g59
NtRp387
(dp388
g62
(dp389
g70
I3
ssg71
g383
sg64
(lp390
S''
asbasbasbag57
(g73
g59
NtRp391
(dp392
g62
(dp393
sg71
g282
sg64
(lp394
g57
(g78
g59
NtRp395
(dp396
g62
(dp397
g82
g83
ssg71
g391
sg64
(lp398
S'path'
p399
asbag57
(g78
g59
NtRp400
(dp401
g62
(dp402
g89
g90
ssg71
g391
sg64
(lp403
S':'
asbag57
(g78
g59
NtRp404
(dp405
g62
(dp406
sg71
g391
sg64
(lp407
g57
(g58
g59
NtRp408
(dp409
g62
(dp410
g70
I3
ssg71
g404
sg64
(lp411
S''
asbasbasbag57
(g73
g59
NtRp412
(dp413
g62
(dp414
sg71
g282
sg64
(lp415
g57
(g78
g59
NtRp416
(dp417
g62
(dp418
g82
g83
ssg71
g412
sg64
(lp419
S'secure'
p420
asbag57
(g78
g59
NtRp421
(dp422
g62
(dp423
g89
g90
ssg71
g412
sg64
(lp424
S':'
asbag57
(g78
g59
NtRp425
(dp426
g62
(dp427
sg71
g412
sg64
(lp428
g57
(g58
g59
NtRp429
(dp430
g62
(dp431
g70
I3
ssg71
g425
sg64
(lp432
S''
asbasbasbag57
(g73
g59
NtRp433
(dp434
g62
(dp435
sg71
g282
sg64
(lp436
g57
(g78
g59
NtRp437
(dp438
g62
(dp439
g82
g83
ssg71
g433
sg64
(lp440
S'version'
p441
asbag57
(g78
g59
NtRp442
(dp443
g62
(dp444
g89
g90
ssg71
g433
sg64
(lp445
S':'
asbag57
(g78
g59
NtRp446
(dp447
g62
(dp448
sg71
g433
sg64
(lp449
g57
(g58
g59
NtRp450
(dp451
g62
(dp452
g70
I3
ssg71
g446
sg64
(lp453
S''
asbasbasbasbasbasbasbag57
(g73
g59
NtRp454
(dp455
g62
(dp456
sg71
g256
sg64
(lp457
g57
(g78
g59
NtRp458
(dp459
g62
(dp460
g82
g83
ssg71
g454
sg64
(lp461
S'session_id_fayol'
p462
asbag57
(g78
g59
NtRp463
(dp464
g62
(dp465
g89
g90
ssg71
g454
sg64
(lp466
S':'
asbag57
(g78
g59
NtRp467
(dp468
g62
(dp469
sg71
g454
sg64
(lp470
g57
(g58
g59
NtRp471
(dp472
g62
(dp473
g70
I4
ssg71
g467
sg64
(lp474
S'127.0.0.1-4365d02b-8819-47e5-a724-886dfa22cb58'
p475
ag57
(g66
g59
NtRp476
(dp477
g62
(dp478
g70
I3
ssg71
Nsg64
(lp479
g57
(g73
g59
NtRp480
(dp481
g62
(dp482
sg71
g476
sg64
(lp483
g57
(g78
g59
NtRp484
(dp485
g62
(dp486
g82
g83
ssg71
g480
sg64
(lp487
g294
asbag57
(g78
g59
NtRp488
(dp489
g62
(dp490
g89
g90
ssg71
g480
sg64
(lp491
S':'
asbag57
(g78
g59
NtRp492
(dp493
g62
(dp494
sg71
g480
sg64
(lp495
g57
(g58
g59
NtRp496
(dp497
g62
(dp498
g70
I3
ssg71
g492
sg64
(lp499
S''
asbasbasbag57
(g73
g59
NtRp500
(dp501
g62
(dp502
sg71
g476
sg64
(lp503
g57
(g78
g59
NtRp504
(dp505
g62
(dp506
g82
g83
ssg71
g500
sg64
(lp507
g315
asbag57
(g78
g59
NtRp508
(dp509
g62
(dp510
g89
g90
ssg71
g500
sg64
(lp511
S':'
asbag57
(g78
g59
NtRp512
(dp513
g62
(dp514
sg71
g500
sg64
(lp515
g57
(g58
g59
NtRp516
(dp517
g62
(dp518
g70
I3
ssg71
g512
sg64
(lp519
S''
asbasbasbag57
(g73
g59
NtRp520
(dp521
g62
(dp522
sg71
g476
sg64
(lp523
g57
(g78
g59
NtRp524
(dp525
g62
(dp526
g82
g83
ssg71
g520
sg64
(lp527
g336
asbag57
(g78
g59
NtRp528
(dp529
g62
(dp530
g89
g90
ssg71
g520
sg64
(lp531
S':'
asbag57
(g78
g59
NtRp532
(dp533
g62
(dp534
sg71
g520
sg64
(lp535
g57
(g58
g59
NtRp536
(dp537
g62
(dp538
g70
I3
ssg71
g532
sg64
(lp539
S''
asbasbasbag57
(g73
g59
NtRp540
(dp541
g62
(dp542
sg71
g476
sg64
(lp543
g57
(g78
g59
NtRp544
(dp545
g62
(dp546
g82
g83
ssg71
g540
sg64
(lp547
g357
asbag57
(g78
g59
NtRp548
(dp549
g62
(dp550
g89
g90
ssg71
g540
sg64
(lp551
S':'
asbag57
(g78
g59
NtRp552
(dp553
g62
(dp554
sg71
g540
sg64
(lp555
g57
(g58
g59
NtRp556
(dp557
g62
(dp558
g70
I3
ssg71
g552
sg64
(lp559
S''
asbasbasbag57
(g73
g59
NtRp560
(dp561
g62
(dp562
sg71
g476
sg64
(lp563
g57
(g78
g59
NtRp564
(dp565
g62
(dp566
g82
g83
ssg71
g560
sg64
(lp567
g378
asbag57
(g78
g59
NtRp568
(dp569
g62
(dp570
g89
g90
ssg71
g560
sg64
(lp571
S':'
asbag57
(g78
g59
NtRp572
(dp573
g62
(dp574
sg71
g560
sg64
(lp575
g57
(g58
g59
NtRp576
(dp577
g62
(dp578
g70
I3
ssg71
g572
sg64
(lp579
S''
asbasbasbag57
(g73
g59
NtRp580
(dp581
g62
(dp582
sg71
g476
sg64
(lp583
g57
(g78
g59
NtRp584
(dp585
g62
(dp586
g82
g83
ssg71
g580
sg64
(lp587
g399
asbag57
(g78
g59
NtRp588
(dp589
g62
(dp590
g89
g90
ssg71
g580
sg64
(lp591
S':'
asbag57
(g78
g59
NtRp592
(dp593
g62
(dp594
sg71
g580
sg64
(lp595
g57
(g58
g59
NtRp596
(dp597
g62
(dp598
g70
I3
ssg71
g592
sg64
(lp599
S''
asbasbasbag57
(g73
g59
NtRp600
(dp601
g62
(dp602
sg71
g476
sg64
(lp603
g57
(g78
g59
NtRp604
(dp605
g62
(dp606
g82
g83
ssg71
g600
sg64
(lp607
g420
asbag57
(g78
g59
NtRp608
(dp609
g62
(dp610
g89
g90
ssg71
g600
sg64
(lp611
S':'
asbag57
(g78
g59
NtRp612
(dp613
g62
(dp614
sg71
g600
sg64
(lp615
g57
(g58
g59
NtRp616
(dp617
g62
(dp618
g70
I3
ssg71
g612
sg64
(lp619
S''
asbasbasbag57
(g73
g59
NtRp620
(dp621
g62
(dp622
sg71
g476
sg64
(lp623
g57
(g78
g59
NtRp624
(dp625
g62
(dp626
g82
g83
ssg71
g620
sg64
(lp627
g441
asbag57
(g78
g59
NtRp628
(dp629
g62
(dp630
g89
g90
ssg71
g620
sg64
(lp631
S':'
asbag57
(g78
g59
NtRp632
(dp633
g62
(dp634
sg71
g620
sg64
(lp635
g57
(g58
g59
NtRp636
(dp637
g62
(dp638
g70
I3
ssg71
g632
sg64
(lp639
S''
asbasbasbasbasbasbasbag57
(g73
g59
NtRp640
(dp641
g62
(dp642
sg71
g256
sg64
(lp643
g57
(g78
g59
NtRp644
(dp645
g62
(dp646
g82
g83
ssg71
g640
sg64
(lp647
S'session_id_randomwords'
p648
asbag57
(g78
g59
NtRp649
(dp650
g62
(dp651
g89
g90
ssg71
g640
sg64
(lp652
S':'
asbag57
(g78
g59
NtRp653
(dp654
g62
(dp655
sg71
g640
sg64
(lp656
g57
(g58
g59
NtRp657
(dp658
g62
(dp659
g70
I4
ssg71
g653
sg64
(lp660
S'127.0.0.1-0bd8aba9-4c26-4c3e-ba38-4feb8157de7a'
p661
ag57
(g66
g59
NtRp662
(dp663
g62
(dp664
g70
I3
ssg71
Nsg64
(lp665
g57
(g73
g59
NtRp666
(dp667
g62
(dp668
sg71
g662
sg64
(lp669
g57
(g78
g59
NtRp670
(dp671
g62
(dp672
g82
g83
ssg71
g666
sg64
(lp673
g294
asbag57
(g78
g59
NtRp674
(dp675
g62
(dp676
g89
g90
ssg71
g666
sg64
(lp677
S':'
asbag57
(g78
g59
NtRp678
(dp679
g62
(dp680
sg71
g666
sg64
(lp681
g57
(g58
g59
NtRp682
(dp683
g62
(dp684
g70
I3
ssg71
g678
sg64
(lp685
S''
asbasbasbag57
(g73
g59
NtRp686
(dp687
g62
(dp688
sg71
g662
sg64
(lp689
g57
(g78
g59
NtRp690
(dp691
g62
(dp692
g82
g83
ssg71
g686
sg64
(lp693
g315
asbag57
(g78
g59
NtRp694
(dp695
g62
(dp696
g89
g90
ssg71
g686
sg64
(lp697
S':'
asbag57
(g78
g59
NtRp698
(dp699
g62
(dp700
sg71
g686
sg64
(lp701
g57
(g58
g59
NtRp702
(dp703
g62
(dp704
g70
I3
ssg71
g698
sg64
(lp705
S''
asbasbasbag57
(g73
g59
NtRp706
(dp707
g62
(dp708
sg71
g662
sg64
(lp709
g57
(g78
g59
NtRp710
(dp711
g62
(dp712
g82
g83
ssg71
g706
sg64
(lp713
g336
asbag57
(g78
g59
NtRp714
(dp715
g62
(dp716
g89
g90
ssg71
g706
sg64
(lp717
S':'
asbag57
(g78
g59
NtRp718
(dp719
g62
(dp720
sg71
g706
sg64
(lp721
g57
(g58
g59
NtRp722
(dp723
g62
(dp724
g70
I3
ssg71
g718
sg64
(lp725
S''
asbasbasbag57
(g73
g59
NtRp726
(dp727
g62
(dp728
sg71
g662
sg64
(lp729
g57
(g78
g59
NtRp730
(dp731
g62
(dp732
g82
g83
ssg71
g726
sg64
(lp733
g357
asbag57
(g78
g59
NtRp734
(dp735
g62
(dp736
g89
g90
ssg71
g726
sg64
(lp737
S':'
asbag57
(g78
g59
NtRp738
(dp739
g62
(dp740
sg71
g726
sg64
(lp741
g57
(g58
g59
NtRp742
(dp743
g62
(dp744
g70
I3
ssg71
g738
sg64
(lp745
S''
asbasbasbag57
(g73
g59
NtRp746
(dp747
g62
(dp748
sg71
g662
sg64
(lp749
g57
(g78
g59
NtRp750
(dp751
g62
(dp752
g82
g83
ssg71
g746
sg64
(lp753
g378
asbag57
(g78
g59
NtRp754
(dp755
g62
(dp756
g89
g90
ssg71
g746
sg64
(lp757
S':'
asbag57
(g78
g59
NtRp758
(dp759
g62
(dp760
sg71
g746
sg64
(lp761
g57
(g58
g59
NtRp762
(dp763
g62
(dp764
g70
I3
ssg71
g758
sg64
(lp765
S''
asbasbasbag57
(g73
g59
NtRp766
(dp767
g62
(dp768
sg71
g662
sg64
(lp769
g57
(g78
g59
NtRp770
(dp771
g62
(dp772
g82
g83
ssg71
g766
sg64
(lp773
g399
asbag57
(g78
g59
NtRp774
(dp775
g62
(dp776
g89
g90
ssg71
g766
sg64
(lp777
S':'
asbag57
(g78
g59
NtRp778
(dp779
g62
(dp780
sg71
g766
sg64
(lp781
g57
(g58
g59
NtRp782
(dp783
g62
(dp784
g70
I3
ssg71
g778
sg64
(lp785
S''
asbasbasbag57
(g73
g59
NtRp786
(dp787
g62
(dp788
sg71
g662
sg64
(lp789
g57
(g78
g59
NtRp790
(dp791
g62
(dp792
g82
g83
ssg71
g786
sg64
(lp793
g420
asbag57
(g78
g59
NtRp794
(dp795
g62
(dp796
g89
g90
ssg71
g786
sg64
(lp797
S':'
asbag57
(g78
g59
NtRp798
(dp799
g62
(dp800
sg71
g786
sg64
(lp801
g57
(g58
g59
NtRp802
(dp803
g62
(dp804
g70
I3
ssg71
g798
sg64
(lp805
S''
asbasbasbag57
(g73
g59
NtRp806
(dp807
g62
(dp808
sg71
g662
sg64
(lp809
g57
(g78
g59
NtRp810
(dp811
g62
(dp812
g82
g83
ssg71
g806
sg64
(lp813
g441
asbag57
(g78
g59
NtRp814
(dp815
g62
(dp816
g89
g90
ssg71
g806
sg64
(lp817
S':'
asbag57
(g78
g59
NtRp818
(dp819
g62
(dp820
sg71
g806
sg64
(lp821
g57
(g58
g59
NtRp822
(dp823
g62
(dp824
g70
I3
ssg71
g818
sg64
(lp825
S''
asbasbasbasbasbasbasbag57
(g73
g59
NtRp826
(dp827
g62
(dp828
sg71
g256
sg64
(lp829
g57
(g78
g59
NtRp830
(dp831
g62
(dp832
g82
g83
ssg71
g826
sg64
(lp833
S'session_id_welcome'
p834
asbag57
(g78
g59
NtRp835
(dp836
g62
(dp837
g89
g90
ssg71
g826
sg64
(lp838
S':'
asbag57
(g78
g59
NtRp839
(dp840
g62
(dp841
sg71
g826
sg64
(lp842
g57
(g58
g59
NtRp843
(dp844
g62
(dp845
g70
I4
ssg71
g839
sg64
(lp846
S'127.0.0.1-7dbbf1c0-4339-41b2-90c0-6cdd1b8d159f'
p847
ag57
(g66
g59
NtRp848
(dp849
g62
(dp850
g70
I3
ssg71
Nsg64
(lp851
g57
(g73
g59
NtRp852
(dp853
g62
(dp854
sg71
g848
sg64
(lp855
g57
(g78
g59
NtRp856
(dp857
g62
(dp858
g82
g83
ssg71
g852
sg64
(lp859
g294
asbag57
(g78
g59
NtRp860
(dp861
g62
(dp862
g89
g90
ssg71
g852
sg64
(lp863
S':'
asbag57
(g78
g59
NtRp864
(dp865
g62
(dp866
sg71
g852
sg64
(lp867
g57
(g58
g59
NtRp868
(dp869
g62
(dp870
g70
I3
ssg71
g864
sg64
(lp871
S''
asbasbasbag57
(g73
g59
NtRp872
(dp873
g62
(dp874
sg71
g848
sg64
(lp875
g57
(g78
g59
NtRp876
(dp877
g62
(dp878
g82
g83
ssg71
g872
sg64
(lp879
g315
asbag57
(g78
g59
NtRp880
(dp881
g62
(dp882
g89
g90
ssg71
g872
sg64
(lp883
S':'
asbag57
(g78
g59
NtRp884
(dp885
g62
(dp886
sg71
g872
sg64
(lp887
g57
(g58
g59
NtRp888
(dp889
g62
(dp890
g70
I3
ssg71
g884
sg64
(lp891
S''
asbasbasbag57
(g73
g59
NtRp892
(dp893
g62
(dp894
sg71
g848
sg64
(lp895
g57
(g78
g59
NtRp896
(dp897
g62
(dp898
g82
g83
ssg71
g892
sg64
(lp899
g336
asbag57
(g78
g59
NtRp900
(dp901
g62
(dp902
g89
g90
ssg71
g892
sg64
(lp903
S':'
asbag57
(g78
g59
NtRp904
(dp905
g62
(dp906
sg71
g892
sg64
(lp907
g57
(g58
g59
NtRp908
(dp909
g62
(dp910
g70
I3
ssg71
g904
sg64
(lp911
S''
asbasbasbag57
(g73
g59
NtRp912
(dp913
g62
(dp914
sg71
g848
sg64
(lp915
g57
(g78
g59
NtRp916
(dp917
g62
(dp918
g82
g83
ssg71
g912
sg64
(lp919
g357
asbag57
(g78
g59
NtRp920
(dp921
g62
(dp922
g89
g90
ssg71
g912
sg64
(lp923
S':'
asbag57
(g78
g59
NtRp924
(dp925
g62
(dp926
sg71
g912
sg64
(lp927
g57
(g58
g59
NtRp928
(dp929
g62
(dp930
g70
I3
ssg71
g924
sg64
(lp931
S''
asbasbasbag57
(g73
g59
NtRp932
(dp933
g62
(dp934
sg71
g848
sg64
(lp935
g57
(g78
g59
NtRp936
(dp937
g62
(dp938
g82
g83
ssg71
g932
sg64
(lp939
g378
asbag57
(g78
g59
NtRp940
(dp941
g62
(dp942
g89
g90
ssg71
g932
sg64
(lp943
S':'
asbag57
(g78
g59
NtRp944
(dp945
g62
(dp946
sg71
g932
sg64
(lp947
g57
(g58
g59
NtRp948
(dp949
g62
(dp950
g70
I3
ssg71
g944
sg64
(lp951
S''
asbasbasbag57
(g73
g59
NtRp952
(dp953
g62
(dp954
sg71
g848
sg64
(lp955
g57
(g78
g59
NtRp956
(dp957
g62
(dp958
g82
g83
ssg71
g952
sg64
(lp959
g399
asbag57
(g78
g59
NtRp960
(dp961
g62
(dp962
g89
g90
ssg71
g952
sg64
(lp963
S':'
asbag57
(g78
g59
NtRp964
(dp965
g62
(dp966
sg71
g952
sg64
(lp967
g57
(g58
g59
NtRp968
(dp969
g62
(dp970
g70
I3
ssg71
g964
sg64
(lp971
S''
asbasbasbag57
(g73
g59
NtRp972
(dp973
g62
(dp974
sg71
g848
sg64
(lp975
g57
(g78
g59
NtRp976
(dp977
g62
(dp978
g82
g83
ssg71
g972
sg64
(lp979
g420
asbag57
(g78
g59
NtRp980
(dp981
g62
(dp982
g89
g90
ssg71
g972
sg64
(lp983
S':'
asbag57
(g78
g59
NtRp984
(dp985
g62
(dp986
sg71
g972
sg64
(lp987
g57
(g58
g59
NtRp988
(dp989
g62
(dp990
g70
I3
ssg71
g984
sg64
(lp991
S''
asbasbasbag57
(g73
g59
NtRp992
(dp993
g62
(dp994
sg71
g848
sg64
(lp995
g57
(g78
g59
NtRp996
(dp997
g62
(dp998
g82
g83
ssg71
g992
sg64
(lp999
g441
asbag57
(g78
g59
NtRp1000
(dp1001
g62
(dp1002
g89
g90
ssg71
g992
sg64
(lp1003
S':'
asbag57
(g78
g59
NtRp1004
(dp1005
g62
(dp1006
sg71
g992
sg64
(lp1007
g57
(g58
g59
NtRp1008
(dp1009
g62
(dp1010
g70
I3
ssg71
g1004
sg64
(lp1011
S''
asbasbasbasbasbasbasbasbasbasbasbag57
(g73
g59
NtRp1012
(dp1013
g62
(dp1014
sg71
g67
sg64
(lp1015
g57
(g78
g59
NtRp1016
(dp1017
g62
(dp1018
g82
g83
ssg71
g1012
sg64
(lp1019
S'env'
p1020
asbag57
(g78
g59
NtRp1021
(dp1022
g62
(dp1023
g89
g90
ssg71
g1012
sg64
(lp1024
S':'
asbag57
(g78
g59
NtRp1025
(dp1026
g62
(dp1027
sg71
g1012
sg64
(lp1028
g57
(g58
g59
NtRp1029
(dp1030
g62
(dp1031
g70
I5
ssg71
g1025
sg64
(lp1032
g57
(g66
g59
NtRp1033
(dp1034
g62
(dp1035
g70
I4
ssg71
Nsg64
(lp1036
g57
(g73
g59
NtRp1037
(dp1038
g62
(dp1039
sg71
g1033
sg64
(lp1040
g57
(g78
g59
NtRp1041
(dp1042
g62
(dp1043
g82
g83
ssg71
g1037
sg64
(lp1044
S'app_folders'
p1045
asbag57
(g78
g59
NtRp1046
(dp1047
g62
(dp1048
g89
g90
ssg71
g1037
sg64
(lp1049
S':'
asbag57
(g78
g59
NtRp1050
(dp1051
g62
(dp1052
sg71
g1037
sg64
(lp1053
g57
(g58
g59
NtRp1054
(dp1055
g62
(dp1056
g70
I4
ssg71
g1050
sg64
(lp1057
S"set(['/Users/joselara/www/web2py/applications/fayol/', '/Users/joselara/www/web2py/applications/randomwords/'])"
p1058
asbasbasbag57
(g73
g59
NtRp1059
(dp1060
g62
(dp1061
sg71
g1033
sg64
(lp1062
g57
(g78
g59
NtRp1063
(dp1064
g62
(dp1065
g82
g83
ssg71
g1059
sg64
(lp1066
S'applications_parent'
p1067
asbag57
(g78
g59
NtRp1068
(dp1069
g62
(dp1070
g89
g90
ssg71
g1059
sg64
(lp1071
S':'
asbag57
(g78
g59
NtRp1072
(dp1073
g62
(dp1074
sg71
g1059
sg64
(lp1075
g57
(g58
g59
NtRp1076
(dp1077
g62
(dp1078
g70
I4
ssg71
g1072
sg64
(lp1079
S'/Users/joselara/www/web2py'
p1080
asbasbasbag57
(g73
g59
NtRp1081
(dp1082
g62
(dp1083
sg71
g1033
sg64
(lp1084
g57
(g78
g59
NtRp1085
(dp1086
g62
(dp1087
g82
g83
ssg71
g1081
sg64
(lp1088
S'db_sessions'
p1089
asbag57
(g78
g59
NtRp1090
(dp1091
g62
(dp1092
g89
g90
ssg71
g1081
sg64
(lp1093
S':'
asbag57
(g78
g59
NtRp1094
(dp1095
g62
(dp1096
sg71
g1081
sg64
(lp1097
g57
(g58
g59
NtRp1098
(dp1099
g62
(dp1100
g70
I4
ssg71
g1094
sg64
(lp1101
S'set([])'
p1102
asbasbasbag57
(g73
g59
NtRp1103
(dp1104
g62
(dp1105
sg71
g1033
sg64
(lp1106
g57
(g78
g59
NtRp1107
(dp1108
g62
(dp1109
g82
g83
ssg71
g1103
sg64
(lp1110
S'debugging'
p1111
asbag57
(g78
g59
NtRp1112
(dp1113
g62
(dp1114
g89
g90
ssg71
g1103
sg64
(lp1115
S':'
asbag57
(g78
g59
NtRp1116
(dp1117
g62
(dp1118
sg71
g1103
sg64
(lp1119
g57
(g58
g59
NtRp1120
(dp1121
g62
(dp1122
g70
I4
ssg71
g1116
sg64
(lp1123
g100
asbasbasbag57
(g73
g59
NtRp1124
(dp1125
g62
(dp1126
sg71
g1033
sg64
(lp1127
g57
(g78
g59
NtRp1128
(dp1129
g62
(dp1130
g82
g83
ssg71
g1124
sg64
(lp1131
S'document_root'
p1132
asbag57
(g78
g59
NtRp1133
(dp1134
g62
(dp1135
g89
g90
ssg71
g1124
sg64
(lp1136
S':'
asbag57
(g78
g59
NtRp1137
(dp1138
g62
(dp1139
sg71
g1124
sg64
(lp1140
g57
(g58
g59
NtRp1141
(dp1142
g62
(dp1143
g70
I4
ssg71
g1137
sg64
(lp1144
S'/Library/WebServer/Documents'
p1145
asbasbasbag57
(g73
g59
NtRp1146
(dp1147
g62
(dp1148
sg71
g1033
sg64
(lp1149
g57
(g78
g59
NtRp1150
(dp1151
g62
(dp1152
g82
g83
ssg71
g1146
sg64
(lp1153
S'gateway_interface'
p1154
asbag57
(g78
g59
NtRp1155
(dp1156
g62
(dp1157
g89
g90
ssg71
g1146
sg64
(lp1158
S':'
asbag57
(g78
g59
NtRp1159
(dp1160
g62
(dp1161
sg71
g1146
sg64
(lp1162
g57
(g58
g59
NtRp1163
(dp1164
g62
(dp1165
g70
I4
ssg71
g1159
sg64
(lp1166
S'CGI/1.1'
p1167
asbasbasbag57
(g73
g59
NtRp1168
(dp1169
g62
(dp1170
sg71
g1033
sg64
(lp1171
g57
(g78
g59
NtRp1172
(dp1173
g62
(dp1174
g82
g83
ssg71
g1168
sg64
(lp1175
S'gluon_parent'
p1176
asbag57
(g78
g59
NtRp1177
(dp1178
g62
(dp1179
g89
g90
ssg71
g1168
sg64
(lp1180
S':'
asbag57
(g78
g59
NtRp1181
(dp1182
g62
(dp1183
sg71
g1168
sg64
(lp1184
g57
(g58
g59
NtRp1185
(dp1186
g62
(dp1187
g70
I4
ssg71
g1181
sg64
(lp1188
g1080
asbasbasbag57
(g73
g59
NtRp1189
(dp1190
g62
(dp1191
sg71
g1033
sg64
(lp1192
g57
(g78
g59
NtRp1193
(dp1194
g62
(dp1195
g82
g83
ssg71
g1189
sg64
(lp1196
S'http_accept'
p1197
asbag57
(g78
g59
NtRp1198
(dp1199
g62
(dp1200
g89
g90
ssg71
g1189
sg64
(lp1201
S':'
asbag57
(g78
g59
NtRp1202
(dp1203
g62
(dp1204
sg71
g1189
sg64
(lp1205
g57
(g58
g59
NtRp1206
(dp1207
g62
(dp1208
g70
I4
ssg71
g1202
sg64
(lp1209
S'text/html,application/xhtml+xml,application/xml;q=0.9,*/*;q=0.8'
p1210
asbasbasbag57
(g73
g59
NtRp1211
(dp1212
g62
(dp1213
sg71
g1033
sg64
(lp1214
g57
(g78
g59
NtRp1215
(dp1216
g62
(dp1217
g82
g83
ssg71
g1211
sg64
(lp1218
S'http_accept_charset'
p1219
asbag57
(g78
g59
NtRp1220
(dp1221
g62
(dp1222
g89
g90
ssg71
g1211
sg64
(lp1223
S':'
asbag57
(g78
g59
NtRp1224
(dp1225
g62
(dp1226
sg71
g1211
sg64
(lp1227
g57
(g58
g59
NtRp1228
(dp1229
g62
(dp1230
g70
I4
ssg71
g1224
sg64
(lp1231
S'ISO-8859-1,utf-8;q=0.7,*;q=0.3'
p1232
asbasbasbag57
(g73
g59
NtRp1233
(dp1234
g62
(dp1235
sg71
g1033
sg64
(lp1236
g57
(g78
g59
NtRp1237
(dp1238
g62
(dp1239
g82
g83
ssg71
g1233
sg64
(lp1240
S'http_accept_encoding'
p1241
asbag57
(g78
g59
NtRp1242
(dp1243
g62
(dp1244
g89
g90
ssg71
g1233
sg64
(lp1245
S':'
asbag57
(g78
g59
NtRp1246
(dp1247
g62
(dp1248
sg71
g1233
sg64
(lp1249
g57
(g58
g59
NtRp1250
(dp1251
g62
(dp1252
g70
I4
ssg71
g1246
sg64
(lp1253
S'gzip,deflate,sdch'
p1254
asbasbasbag57
(g73
g59
NtRp1255
(dp1256
g62
(dp1257
sg71
g1033
sg64
(lp1258
g57
(g78
g59
NtRp1259
(dp1260
g62
(dp1261
g82
g83
ssg71
g1255
sg64
(lp1262
S'http_accept_language'
p1263
asbag57
(g78
g59
NtRp1264
(dp1265
g62
(dp1266
g89
g90
ssg71
g1255
sg64
(lp1267
S':'
asbag57
(g78
g59
NtRp1268
(dp1269
g62
(dp1270
sg71
g1255
sg64
(lp1271
g57
(g58
g59
NtRp1272
(dp1273
g62
(dp1274
g70
I4
ssg71
g1268
sg64
(lp1275
S'es-ES,es;q=0.8'
p1276
asbasbasbag57
(g73
g59
NtRp1277
(dp1278
g62
(dp1279
sg71
g1033
sg64
(lp1280
g57
(g78
g59
NtRp1281
(dp1282
g62
(dp1283
g82
g83
ssg71
g1277
sg64
(lp1284
S'http_cache_control'
p1285
asbag57
(g78
g59
NtRp1286
(dp1287
g62
(dp1288
g89
g90
ssg71
g1277
sg64
(lp1289
S':'
asbag57
(g78
g59
NtRp1290
(dp1291
g62
(dp1292
sg71
g1277
sg64
(lp1293
g57
(g58
g59
NtRp1294
(dp1295
g62
(dp1296
g70
I4
ssg71
g1290
sg64
(lp1297
S'max-age=0'
p1298
asbasbasbag57
(g73
g59
NtRp1299
(dp1300
g62
(dp1301
sg71
g1033
sg64
(lp1302
g57
(g78
g59
NtRp1303
(dp1304
g62
(dp1305
g82
g83
ssg71
g1299
sg64
(lp1306
S'http_connection'
p1307
asbag57
(g78
g59
NtRp1308
(dp1309
g62
(dp1310
g89
g90
ssg71
g1299
sg64
(lp1311
S':'
asbag57
(g78
g59
NtRp1312
(dp1313
g62
(dp1314
sg71
g1299
sg64
(lp1315
g57
(g58
g59
NtRp1316
(dp1317
g62
(dp1318
g70
I4
ssg71
g1312
sg64
(lp1319
S'keep-alive'
p1320
asbasbasbag57
(g73
g59
NtRp1321
(dp1322
g62
(dp1323
sg71
g1033
sg64
(lp1324
g57
(g78
g59
NtRp1325
(dp1326
g62
(dp1327
g82
g83
ssg71
g1321
sg64
(lp1328
S'http_cookie'
p1329
asbag57
(g78
g59
NtRp1330
(dp1331
g62
(dp1332
g89
g90
ssg71
g1321
sg64
(lp1333
S':'
asbag57
(g78
g59
NtRp1334
(dp1335
g62
(dp1336
sg71
g1321
sg64
(lp1337
g57
(g58
g59
NtRp1338
(dp1339
g62
(dp1340
g70
I4
ssg71
g1334
sg64
(lp1341
S'session_id_welcome=127.0.0.1-7dbbf1c0-4339-41b2-90c0-6cdd1b8d159f; session_id_admin=127.0.0.1-3ad56f0e-bc14-4410-b678-7c708c9d6393; session_id_fayol=127.0.0.1-4365d02b-8819-47e5-a724-886dfa22cb58; session_id_randomwords=127.0.0.1-0bd8aba9-4c26-4c3e-ba38-4feb8157de7a'
p1342
asbasbasbag57
(g73
g59
NtRp1343
(dp1344
g62
(dp1345
sg71
g1033
sg64
(lp1346
g57
(g78
g59
NtRp1347
(dp1348
g62
(dp1349
g82
g83
ssg71
g1343
sg64
(lp1350
S'http_host'
p1351
asbag57
(g78
g59
NtRp1352
(dp1353
g62
(dp1354
g89
g90
ssg71
g1343
sg64
(lp1355
S':'
asbag57
(g78
g59
NtRp1356
(dp1357
g62
(dp1358
sg71
g1343
sg64
(lp1359
g57
(g58
g59
NtRp1360
(dp1361
g62
(dp1362
g70
I4
ssg71
g1356
sg64
(lp1363
S'web2py'
p1364
asbasbasbag57
(g73
g59
NtRp1365
(dp1366
g62
(dp1367
sg71
g1033
sg64
(lp1368
g57
(g78
g59
NtRp1369
(dp1370
g62
(dp1371
g82
g83
ssg71
g1365
sg64
(lp1372
S'http_user_agent'
p1373
asbag57
(g78
g59
NtRp1374
(dp1375
g62
(dp1376
g89
g90
ssg71
g1365
sg64
(lp1377
S':'
asbag57
(g78
g59
NtRp1378
(dp1379
g62
(dp1380
sg71
g1365
sg64
(lp1381
g57
(g58
g59
NtRp1382
(dp1383
g62
(dp1384
g70
I4
ssg71
g1378
sg64
(lp1385
S'Mozilla/5.0 (Macintosh; Intel Mac OS X 10_8_2) AppleWebKit/537.4 (KHTML, like Gecko) Chrome/22.0.1229.94 Safari/537.4'
p1386
asbasbasbag57
(g73
g59
NtRp1387
(dp1388
g62
(dp1389
sg71
g1033
sg64
(lp1390
g57
(g78
g59
NtRp1391
(dp1392
g62
(dp1393
g82
g83
ssg71
g1387
sg64
(lp1394
S'is_jython'
p1395
asbag57
(g78
g59
NtRp1396
(dp1397
g62
(dp1398
g89
g90
ssg71
g1387
sg64
(lp1399
S':'
asbag57
(g78
g59
NtRp1400
(dp1401
g62
(dp1402
sg71
g1387
sg64
(lp1403
g57
(g58
g59
NtRp1404
(dp1405
g62
(dp1406
g70
I4
ssg71
g1400
sg64
(lp1407
g100
asbasbasbag57
(g73
g59
NtRp1408
(dp1409
g62
(dp1410
sg71
g1033
sg64
(lp1411
g57
(g78
g59
NtRp1412
(dp1413
g62
(dp1414
g82
g83
ssg71
g1408
sg64
(lp1415
S'is_pypy'
p1416
asbag57
(g78
g59
NtRp1417
(dp1418
g62
(dp1419
g89
g90
ssg71
g1408
sg64
(lp1420
S':'
asbag57
(g78
g59
NtRp1421
(dp1422
g62
(dp1423
sg71
g1408
sg64
(lp1424
g57
(g58
g59
NtRp1425
(dp1426
g62
(dp1427
g70
I4
ssg71
g1421
sg64
(lp1428
g100
asbasbasbag57
(g73
g59
NtRp1429
(dp1430
g62
(dp1431
sg71
g1033
sg64
(lp1432
g57
(g78
g59
NtRp1433
(dp1434
g62
(dp1435
g82
g83
ssg71
g1429
sg64
(lp1436
S'mod_wsgi_application_group'
p1437
asbag57
(g78
g59
NtRp1438
(dp1439
g62
(dp1440
g89
g90
ssg71
g1429
sg64
(lp1441
S':'
asbag57
(g78
g59
NtRp1442
(dp1443
g62
(dp1444
sg71
g1429
sg64
(lp1445
g57
(g58
g59
NtRp1446
(dp1447
g62
(dp1448
g70
I4
ssg71
g1442
sg64
(lp1449
S'web2py|'
p1450
asbasbasbag57
(g73
g59
NtRp1451
(dp1452
g62
(dp1453
sg71
g1033
sg64
(lp1454
g57
(g78
g59
NtRp1455
(dp1456
g62
(dp1457
g82
g83
ssg71
g1451
sg64
(lp1458
S'mod_wsgi_callable_object'
p1459
asbag57
(g78
g59
NtRp1460
(dp1461
g62
(dp1462
g89
g90
ssg71
g1451
sg64
(lp1463
S':'
asbag57
(g78
g59
NtRp1464
(dp1465
g62
(dp1466
sg71
g1451
sg64
(lp1467
g57
(g58
g59
NtRp1468
(dp1469
g62
(dp1470
g70
I4
ssg71
g1464
sg64
(lp1471
S'application'
p1472
asbasbasbag57
(g73
g59
NtRp1473
(dp1474
g62
(dp1475
sg71
g1033
sg64
(lp1476
g57
(g78
g59
NtRp1477
(dp1478
g62
(dp1479
g82
g83
ssg71
g1473
sg64
(lp1480
S'mod_wsgi_enable_sendfile'
p1481
asbag57
(g78
g59
NtRp1482
(dp1483
g62
(dp1484
g89
g90
ssg71
g1473
sg64
(lp1485
S':'
asbag57
(g78
g59
NtRp1486
(dp1487
g62
(dp1488
sg71
g1473
sg64
(lp1489
g57
(g58
g59
NtRp1490
(dp1491
g62
(dp1492
g70
I4
ssg71
g1486
sg64
(lp1493
S'0'
asbasbasbag57
(g73
g59
NtRp1494
(dp1495
g62
(dp1496
sg71
g1033
sg64
(lp1497
g57
(g78
g59
NtRp1498
(dp1499
g62
(dp1500
g82
g83
ssg71
g1494
sg64
(lp1501
S'mod_wsgi_handler_script'
p1502
asbag57
(g78
g59
NtRp1503
(dp1504
g62
(dp1505
g89
g90
ssg71
g1494
sg64
(lp1506
S':'
asbag57
(g78
g59
NtRp1507
(dp1508
g62
(dp1509
sg71
g1494
sg64
(lp1510
g57
(g58
g59
NtRp1511
(dp1512
g62
(dp1513
g70
I4
ssg71
g1507
sg64
(lp1514
S''
asbasbasbag57
(g73
g59
NtRp1515
(dp1516
g62
(dp1517
sg71
g1033
sg64
(lp1518
g57
(g78
g59
NtRp1519
(dp1520
g62
(dp1521
g82
g83
ssg71
g1515
sg64
(lp1522
S'mod_wsgi_input_chunked'
p1523
asbag57
(g78
g59
NtRp1524
(dp1525
g62
(dp1526
g89
g90
ssg71
g1515
sg64
(lp1527
S':'
asbag57
(g78
g59
NtRp1528
(dp1529
g62
(dp1530
sg71
g1515
sg64
(lp1531
g57
(g58
g59
NtRp1532
(dp1533
g62
(dp1534
g70
I4
ssg71
g1528
sg64
(lp1535
S'0'
asbasbasbag57
(g73
g59
NtRp1536
(dp1537
g62
(dp1538
sg71
g1033
sg64
(lp1539
g57
(g78
g59
NtRp1540
(dp1541
g62
(dp1542
g82
g83
ssg71
g1536
sg64
(lp1543
S'mod_wsgi_listener_host'
p1544
asbag57
(g78
g59
NtRp1545
(dp1546
g62
(dp1547
g89
g90
ssg71
g1536
sg64
(lp1548
S':'
asbag57
(g78
g59
NtRp1549
(dp1550
g62
(dp1551
sg71
g1536
sg64
(lp1552
g57
(g58
g59
NtRp1553
(dp1554
g62
(dp1555
g70
I4
ssg71
g1549
sg64
(lp1556
S''
asbasbasbag57
(g73
g59
NtRp1557
(dp1558
g62
(dp1559
sg71
g1033
sg64
(lp1560
g57
(g78
g59
NtRp1561
(dp1562
g62
(dp1563
g82
g83
ssg71
g1557
sg64
(lp1564
S'mod_wsgi_listener_port'
p1565
asbag57
(g78
g59
NtRp1566
(dp1567
g62
(dp1568
g89
g90
ssg71
g1557
sg64
(lp1569
S':'
asbag57
(g78
g59
NtRp1570
(dp1571
g62
(dp1572
sg71
g1557
sg64
(lp1573
g57
(g58
g59
NtRp1574
(dp1575
g62
(dp1576
g70
I4
ssg71
g1570
sg64
(lp1577
S'80'
p1578
asbasbasbag57
(g73
g59
NtRp1579
(dp1580
g62
(dp1581
sg71
g1033
sg64
(lp1582
g57
(g78
g59
NtRp1583
(dp1584
g62
(dp1585
g82
g83
ssg71
g1579
sg64
(lp1586
S'mod_wsgi_process_group'
p1587
asbag57
(g78
g59
NtRp1588
(dp1589
g62
(dp1590
g89
g90
ssg71
g1579
sg64
(lp1591
S':'
asbag57
(g78
g59
NtRp1592
(dp1593
g62
(dp1594
sg71
g1579
sg64
(lp1595
g57
(g58
g59
NtRp1596
(dp1597
g62
(dp1598
g70
I4
ssg71
g1592
sg64
(lp1599
S''
asbasbasbag57
(g73
g59
NtRp1600
(dp1601
g62
(dp1602
sg71
g1033
sg64
(lp1603
g57
(g78
g59
NtRp1604
(dp1605
g62
(dp1606
g82
g83
ssg71
g1600
sg64
(lp1607
S'mod_wsgi_queue_start'
p1608
asbag57
(g78
g59
NtRp1609
(dp1610
g62
(dp1611
g89
g90
ssg71
g1600
sg64
(lp1612
S':'
asbag57
(g78
g59
NtRp1613
(dp1614
g62
(dp1615
sg71
g1600
sg64
(lp1616
g57
(g58
g59
NtRp1617
(dp1618
g62
(dp1619
g70
I4
ssg71
g1613
sg64
(lp1620
S'1351060126631804'
p1621
asbasbasbag57
(g73
g59
NtRp1622
(dp1623
g62
(dp1624
sg71
g1033
sg64
(lp1625
g57
(g78
g59
NtRp1626
(dp1627
g62
(dp1628
g82
g83
ssg71
g1622
sg64
(lp1629
S'mod_wsgi_request_handler'
p1630
asbag57
(g78
g59
NtRp1631
(dp1632
g62
(dp1633
g89
g90
ssg71
g1622
sg64
(lp1634
S':'
asbag57
(g78
g59
NtRp1635
(dp1636
g62
(dp1637
sg71
g1622
sg64
(lp1638
g57
(g58
g59
NtRp1639
(dp1640
g62
(dp1641
g70
I4
ssg71
g1635
sg64
(lp1642
S'wsgi-script'
p1643
asbasbasbag57
(g73
g59
NtRp1644
(dp1645
g62
(dp1646
sg71
g1033
sg64
(lp1647
g57
(g78
g59
NtRp1648
(dp1649
g62
(dp1650
g82
g83
ssg71
g1644
sg64
(lp1651
S'mod_wsgi_script_reloading'
p1652
asbag57
(g78
g59
NtRp1653
(dp1654
g62
(dp1655
g89
g90
ssg71
g1644
sg64
(lp1656
S':'
asbag57
(g78
g59
NtRp1657
(dp1658
g62
(dp1659
sg71
g1644
sg64
(lp1660
g57
(g58
g59
NtRp1661
(dp1662
g62
(dp1663
g70
I4
ssg71
g1657
sg64
(lp1664
S'1'
asbasbasbag57
(g73
g59
NtRp1665
(dp1666
g62
(dp1667
sg71
g1033
sg64
(lp1668
g57
(g78
g59
NtRp1669
(dp1670
g62
(dp1671
g82
g83
ssg71
g1665
sg64
(lp1672
S'mod_wsgi_version'
p1673
asbag57
(g78
g59
NtRp1674
(dp1675
g62
(dp1676
g89
g90
ssg71
g1665
sg64
(lp1677
S':'
asbag57
(g78
g59
NtRp1678
(dp1679
g62
(dp1680
sg71
g1665
sg64
(lp1681
g57
(g58
g59
NtRp1682
(dp1683
g62
(dp1684
g70
I4
ssg71
g1678
sg64
(lp1685
g57
(g66
g59
NtRp1686
(dp1687
g62
(dp1688
g70
I3
ssg71
Nsg64
(lp1689
g57
(g73
g59
NtRp1690
(dp1691
g62
(dp1692
sg71
g1686
sg64
(lp1693
g57
(g78
g59
NtRp1694
(dp1695
g62
(dp1696
sg71
g1690
sg64
(lp1697
g57
(g58
g59
NtRp1698
(dp1699
g62
(dp1700
g70
I3
ssg71
g1694
sg64
(lp1701
S'3'
asbasbasbag57
(g73
g59
NtRp1702
(dp1703
g62
(dp1704
sg71
g1686
sg64
(lp1705
g57
(g78
g59
NtRp1706
(dp1707
g62
(dp1708
sg71
g1702
sg64
(lp1709
g57
(g58
g59
NtRp1710
(dp1711
g62
(dp1712
g70
I3
ssg71
g1706
sg64
(lp1713
S'4'
asbasbasbasbasbasbasbag57
(g73
g59
NtRp1714
(dp1715
g62
(dp1716
sg71
g1033
sg64
(lp1717
g57
(g78
g59
NtRp1718
(dp1719
g62
(dp1720
g82
g83
ssg71
g1714
sg64
(lp1721
S'path_info'
p1722
asbag57
(g78
g59
NtRp1723
(dp1724
g62
(dp1725
g89
g90
ssg71
g1714
sg64
(lp1726
S':'
asbag57
(g78
g59
NtRp1727
(dp1728
g62
(dp1729
sg71
g1714
sg64
(lp1730
g57
(g58
g59
NtRp1731
(dp1732
g62
(dp1733
g70
I4
ssg71
g1727
sg64
(lp1734
S'/randomwords'
p1735
asbasbasbag57
(g73
g59
NtRp1736
(dp1737
g62
(dp1738
sg71
g1033
sg64
(lp1739
g57
(g78
g59
NtRp1740
(dp1741
g62
(dp1742
g82
g83
ssg71
g1736
sg64
(lp1743
S'path_translated'
p1744
asbag57
(g78
g59
NtRp1745
(dp1746
g62
(dp1747
g89
g90
ssg71
g1736
sg64
(lp1748
S':'
asbag57
(g78
g59
NtRp1749
(dp1750
g62
(dp1751
sg71
g1736
sg64
(lp1752
g57
(g58
g59
NtRp1753
(dp1754
g62
(dp1755
g70
I4
ssg71
g1749
sg64
(lp1756
S'/Users/joselara/www/web2py/wsgihandler.py/randomwords'
p1757
asbasbasbag57
(g73
g59
NtRp1758
(dp1759
g62
(dp1760
sg71
g1033
sg64
(lp1761
g57
(g78
g59
NtRp1762
(dp1763
g62
(dp1764
g82
g83
ssg71
g1758
sg64
(lp1765
S'query_string'
p1766
asbag57
(g78
g59
NtRp1767
(dp1768
g62
(dp1769
g89
g90
ssg71
g1758
sg64
(lp1770
S':'
asbag57
(g78
g59
NtRp1771
(dp1772
g62
(dp1773
sg71
g1758
sg64
(lp1774
g57
(g58
g59
NtRp1775
(dp1776
g62
(dp1777
g70
I4
ssg71
g1771
sg64
(lp1778
S''
asbasbasbag57
(g73
g59
NtRp1779
(dp1780
g62
(dp1781
sg71
g1033
sg64
(lp1782
g57
(g78
g59
NtRp1783
(dp1784
g62
(dp1785
g82
g83
ssg71
g1779
sg64
(lp1786
S'remote_addr'
p1787
asbag57
(g78
g59
NtRp1788
(dp1789
g62
(dp1790
g89
g90
ssg71
g1779
sg64
(lp1791
S':'
asbag57
(g78
g59
NtRp1792
(dp1793
g62
(dp1794
sg71
g1779
sg64
(lp1795
g57
(g58
g59
NtRp1796
(dp1797
g62
(dp1798
g70
I4
ssg71
g1792
sg64
(lp1799
g212
asbasbasbag57
(g73
g59
NtRp1800
(dp1801
g62
(dp1802
sg71
g1033
sg64
(lp1803
g57
(g78
g59
NtRp1804
(dp1805
g62
(dp1806
g82
g83
ssg71
g1800
sg64
(lp1807
S'remote_port'
p1808
asbag57
(g78
g59
NtRp1809
(dp1810
g62
(dp1811
g89
g90
ssg71
g1800
sg64
(lp1812
S':'
asbag57
(g78
g59
NtRp1813
(dp1814
g62
(dp1815
sg71
g1800
sg64
(lp1816
g57
(g58
g59
NtRp1817
(dp1818
g62
(dp1819
g70
I4
ssg71
g1813
sg64
(lp1820
S'51950'
p1821
asbasbasbag57
(g73
g59
NtRp1822
(dp1823
g62
(dp1824
sg71
g1033
sg64
(lp1825
g57
(g78
g59
NtRp1826
(dp1827
g62
(dp1828
g82
g83
ssg71
g1822
sg64
(lp1829
S'request_method'
p1830
asbag57
(g78
g59
NtRp1831
(dp1832
g62
(dp1833
g89
g90
ssg71
g1822
sg64
(lp1834
S':'
asbag57
(g78
g59
NtRp1835
(dp1836
g62
(dp1837
sg71
g1822
sg64
(lp1838
g57
(g58
g59
NtRp1839
(dp1840
g62
(dp1841
g70
I4
ssg71
g1835
sg64
(lp1842
S'GET'
p1843
asbasbasbag57
(g73
g59
NtRp1844
(dp1845
g62
(dp1846
sg71
g1033
sg64
(lp1847
g57
(g78
g59
NtRp1848
(dp1849
g62
(dp1850
g82
g83
ssg71
g1844
sg64
(lp1851
S'request_uri'
p1852
asbag57
(g78
g59
NtRp1853
(dp1854
g62
(dp1855
g89
g90
ssg71
g1844
sg64
(lp1856
S':'
asbag57
(g78
g59
NtRp1857
(dp1858
g62
(dp1859
sg71
g1844
sg64
(lp1860
g57
(g58
g59
NtRp1861
(dp1862
g62
(dp1863
g70
I4
ssg71
g1857
sg64
(lp1864
S'/randomwords'
p1865
asbasbasbag57
(g73
g59
NtRp1866
(dp1867
g62
(dp1868
sg71
g1033
sg64
(lp1869
g57
(g78
g59
NtRp1870
(dp1871
g62
(dp1872
g82
g83
ssg71
g1866
sg64
(lp1873
S'script_filename'
p1874
asbag57
(g78
g59
NtRp1875
(dp1876
g62
(dp1877
g89
g90
ssg71
g1866
sg64
(lp1878
S':'
asbag57
(g78
g59
NtRp1879
(dp1880
g62
(dp1881
sg71
g1866
sg64
(lp1882
g57
(g58
g59
NtRp1883
(dp1884
g62
(dp1885
g70
I4
ssg71
g1879
sg64
(lp1886
S'/Users/joselara/www/web2py/wsgihandler.py'
p1887
asbasbasbag57
(g73
g59
NtRp1888
(dp1889
g62
(dp1890
sg71
g1033
sg64
(lp1891
g57
(g78
g59
NtRp1892
(dp1893
g62
(dp1894
g82
g83
ssg71
g1888
sg64
(lp1895
S'script_name'
p1896
asbag57
(g78
g59
NtRp1897
(dp1898
g62
(dp1899
g89
g90
ssg71
g1888
sg64
(lp1900
S':'
asbag57
(g78
g59
NtRp1901
(dp1902
g62
(dp1903
sg71
g1888
sg64
(lp1904
g57
(g58
g59
NtRp1905
(dp1906
g62
(dp1907
g70
I4
ssg71
g1901
sg64
(lp1908
S''
asbasbasbag57
(g73
g59
NtRp1909
(dp1910
g62
(dp1911
sg71
g1033
sg64
(lp1912
g57
(g78
g59
NtRp1913
(dp1914
g62
(dp1915
g82
g83
ssg71
g1909
sg64
(lp1916
S'server_addr'
p1917
asbag57
(g78
g59
NtRp1918
(dp1919
g62
(dp1920
g89
g90
ssg71
g1909
sg64
(lp1921
S':'
asbag57
(g78
g59
NtRp1922
(dp1923
g62
(dp1924
sg71
g1909
sg64
(lp1925
g57
(g58
g59
NtRp1926
(dp1927
g62
(dp1928
g70
I4
ssg71
g1922
sg64
(lp1929
S'127.0.0.1'
p1930
asbasbasbag57
(g73
g59
NtRp1931
(dp1932
g62
(dp1933
sg71
g1033
sg64
(lp1934
g57
(g78
g59
NtRp1935
(dp1936
g62
(dp1937
g82
g83
ssg71
g1931
sg64
(lp1938
S'server_admin'
p1939
asbag57
(g78
g59
NtRp1940
(dp1941
g62
(dp1942
g89
g90
ssg71
g1931
sg64
(lp1943
S':'
asbag57
(g78
g59
NtRp1944
(dp1945
g62
(dp1946
sg71
g1931
sg64
(lp1947
g57
(g58
g59
NtRp1948
(dp1949
g62
(dp1950
g70
I4
ssg71
g1944
sg64
(lp1951
S'joselara@beardcode.mx'
p1952
asbasbasbag57
(g73
g59
NtRp1953
(dp1954
g62
(dp1955
sg71
g1033
sg64
(lp1956
g57
(g78
g59
NtRp1957
(dp1958
g62
(dp1959
g82
g83
ssg71
g1953
sg64
(lp1960
S'server_name'
p1961
asbag57
(g78
g59
NtRp1962
(dp1963
g62
(dp1964
g89
g90
ssg71
g1953
sg64
(lp1965
S':'
asbag57
(g78
g59
NtRp1966
(dp1967
g62
(dp1968
sg71
g1953
sg64
(lp1969
g57
(g58
g59
NtRp1970
(dp1971
g62
(dp1972
g70
I4
ssg71
g1966
sg64
(lp1973
S'web2py'
p1974
asbasbasbag57
(g73
g59
NtRp1975
(dp1976
g62
(dp1977
sg71
g1033
sg64
(lp1978
g57
(g78
g59
NtRp1979
(dp1980
g62
(dp1981
g82
g83
ssg71
g1975
sg64
(lp1982
S'server_port'
p1983
asbag57
(g78
g59
NtRp1984
(dp1985
g62
(dp1986
g89
g90
ssg71
g1975
sg64
(lp1987
S':'
asbag57
(g78
g59
NtRp1988
(dp1989
g62
(dp1990
sg71
g1975
sg64
(lp1991
g57
(g58
g59
NtRp1992
(dp1993
g62
(dp1994
g70
I4
ssg71
g1988
sg64
(lp1995
S'80'
p1996
asbasbasbag57
(g73
g59
NtRp1997
(dp1998
g62
(dp1999
sg71
g1033
sg64
(lp2000
g57
(g78
g59
NtRp2001
(dp2002
g62
(dp2003
g82
g83
ssg71
g1997
sg64
(lp2004
S'server_protocol'
p2005
asbag57
(g78
g59
NtRp2006
(dp2007
g62
(dp2008
g89
g90
ssg71
g1997
sg64
(lp2009
S':'
asbag57
(g78
g59
NtRp2010
(dp2011
g62
(dp2012
sg71
g1997
sg64
(lp2013
g57
(g58
g59
NtRp2014
(dp2015
g62
(dp2016
g70
I4
ssg71
g2010
sg64
(lp2017
S'HTTP/1.1'
p2018
asbasbasbag57
(g73
g59
NtRp2019
(dp2020
g62
(dp2021
sg71
g1033
sg64
(lp2022
g57
(g78
g59
NtRp2023
(dp2024
g62
(dp2025
g82
g83
ssg71
g2019
sg64
(lp2026
S'server_signature'
p2027
asbag57
(g78
g59
NtRp2028
(dp2029
g62
(dp2030
g89
g90
ssg71
g2019
sg64
(lp2031
S':'
asbag57
(g78
g59
NtRp2032
(dp2033
g62
(dp2034
sg71
g2019
sg64
(lp2035
g57
(g58
g59
NtRp2036
(dp2037
g62
(dp2038
g70
I4
ssg71
g2032
sg64
(lp2039
S''
asbasbasbag57
(g73
g59
NtRp2040
(dp2041
g62
(dp2042
sg71
g1033
sg64
(lp2043
g57
(g78
g59
NtRp2044
(dp2045
g62
(dp2046
g82
g83
ssg71
g2040
sg64
(lp2047
S'server_software'
p2048
asbag57
(g78
g59
NtRp2049
(dp2050
g62
(dp2051
g89
g90
ssg71
g2040
sg64
(lp2052
S':'
asbag57
(g78
g59
NtRp2053
(dp2054
g62
(dp2055
sg71
g2040
sg64
(lp2056
g57
(g58
g59
NtRp2057
(dp2058
g62
(dp2059
g70
I4
ssg71
g2053
sg64
(lp2060
S'Apache/2.2.22 (Unix) mod_wsgi/3.4 Python/2.7.2 PHP/5.3.15 with Suhosin-Patch mod_ssl/2.2.22 OpenSSL/0.9.8r DAV/2 mod_perl/2.0.5 Perl/v5.12.4'
p2061
asbasbasbag57
(g73
g59
NtRp2062
(dp2063
g62
(dp2064
sg71
g1033
sg64
(lp2065
g57
(g78
g59
NtRp2066
(dp2067
g62
(dp2068
g82
g83
ssg71
g2062
sg64
(lp2069
S'web2py_path'
p2070
asbag57
(g78
g59
NtRp2071
(dp2072
g62
(dp2073
g89
g90
ssg71
g2062
sg64
(lp2074
S':'
asbag57
(g78
g59
NtRp2075
(dp2076
g62
(dp2077
sg71
g2062
sg64
(lp2078
g57
(g58
g59
NtRp2079
(dp2080
g62
(dp2081
g70
I4
ssg71
g2075
sg64
(lp2082
g1080
asbasbasbag57
(g73
g59
NtRp2083
(dp2084
g62
(dp2085
sg71
g1033
sg64
(lp2086
g57
(g78
g59
NtRp2087
(dp2088
g62
(dp2089
g82
g83
ssg71
g2083
sg64
(lp2090
S'web2py_version'
p2091
asbag57
(g78
g59
NtRp2092
(dp2093
g62
(dp2094
g89
g90
ssg71
g2083
sg64
(lp2095
S':'
asbag57
(g78
g59
NtRp2096
(dp2097
g62
(dp2098
sg71
g2083
sg64
(lp2099
g57
(g58
g59
NtRp2100
(dp2101
g62
(dp2102
g70
I4
ssg71
g2096
sg64
(lp2103
g57
(g66
g59
NtRp2104
(dp2105
g62
(dp2106
g70
I3
ssg71
Nsg64
(lp2107
g57
(g73
g59
NtRp2108
(dp2109
g62
(dp2110
sg71
g2104
sg64
(lp2111
g57
(g78
g59
NtRp2112
(dp2113
g62
(dp2114
sg71
g2108
sg64
(lp2115
g57
(g58
g59
NtRp2116
(dp2117
g62
(dp2118
g70
I3
ssg71
g2112
sg64
(lp2119
S'2'
asbasbasbag57
(g73
g59
NtRp2120
(dp2121
g62
(dp2122
sg71
g2104
sg64
(lp2123
g57
(g78
g59
NtRp2124
(dp2125
g62
(dp2126
sg71
g2120
sg64
(lp2127
g57
(g58
g59
NtRp2128
(dp2129
g62
(dp2130
g70
I3
ssg71
g2124
sg64
(lp2131
S'0'
asbasbasbag57
(g73
g59
NtRp2132
(dp2133
g62
(dp2134
sg71
g2104
sg64
(lp2135
g57
(g78
g59
NtRp2136
(dp2137
g62
(dp2138
sg71
g2132
sg64
(lp2139
g57
(g58
g59
NtRp2140
(dp2141
g62
(dp2142
g70
I3
ssg71
g2136
sg64
(lp2143
S'9'
asbasbasbag57
(g73
g59
NtRp2144
(dp2145
g62
(dp2146
sg71
g2104
sg64
(lp2147
g57
(g78
g59
NtRp2148
(dp2149
g62
(dp2150
sg71
g2144
sg64
(lp2151
g57
(g58
g59
NtRp2152
(dp2153
g62
(dp2154
g70
I3
ssg71
g2148
sg64
(lp2155
S'datetime.datetime(2012, 9, 13, 23, 51, 30)'
p2156
asbasbasbag57
(g73
g59
NtRp2157
(dp2158
g62
(dp2159
sg71
g2104
sg64
(lp2160
g57
(g78
g59
NtRp2161
(dp2162
g62
(dp2163
sg71
g2157
sg64
(lp2164
g57
(g58
g59
NtRp2165
(dp2166
g62
(dp2167
g70
I3
ssg71
g2161
sg64
(lp2168
S'stable'
p2169
asbasbasbasbasbasbasbag57
(g73
g59
NtRp2170
(dp2171
g62
(dp2172
sg71
g1033
sg64
(lp2173
g57
(g78
g59
NtRp2174
(dp2175
g62
(dp2176
g82
g83
ssg71
g2170
sg64
(lp2177
S'wsgi_errors'
p2178
asbag57
(g78
g59
NtRp2179
(dp2180
g62
(dp2181
g89
g90
ssg71
g2170
sg64
(lp2182
S':'
asbag57
(g78
g59
NtRp2183
(dp2184
g62
(dp2185
sg71
g2170
sg64
(lp2186
g57
(g58
g59
NtRp2187
(dp2188
g62
(dp2189
g70
I4
ssg71
g2183
sg64
(lp2190
S'<mod_wsgi.Log object at 0x10d14d730>'
p2191
asbasbasbag57
(g73
g59
NtRp2192
(dp2193
g62
(dp2194
sg71
g1033
sg64
(lp2195
g57
(g78
g59
NtRp2196
(dp2197
g62
(dp2198
g82
g83
ssg71
g2192
sg64
(lp2199
S'wsgi_file_wrapper'
p2200
asbag57
(g78
g59
NtRp2201
(dp2202
g62
(dp2203
g89
g90
ssg71
g2192
sg64
(lp2204
S':'
asbag57
(g78
g59
NtRp2205
(dp2206
g62
(dp2207
sg71
g2192
sg64
(lp2208
g57
(g58
g59
NtRp2209
(dp2210
g62
(dp2211
g70
I4
ssg71
g2205
sg64
(lp2212
S'<built-in method file_wrapper of mod_wsgi.Adapter object at 0x10d143120>'
p2213
asbasbasbag57
(g73
g59
NtRp2214
(dp2215
g62
(dp2216
sg71
g1033
sg64
(lp2217
g57
(g78
g59
NtRp2218
(dp2219
g62
(dp2220
g82
g83
ssg71
g2214
sg64
(lp2221
S'wsgi_input'
p2222
asbag57
(g78
g59
NtRp2223
(dp2224
g62
(dp2225
g89
g90
ssg71
g2214
sg64
(lp2226
S':'
asbag57
(g78
g59
NtRp2227
(dp2228
g62
(dp2229
sg71
g2214
sg64
(lp2230
g57
(g58
g59
NtRp2231
(dp2232
g62
(dp2233
g70
I4
ssg71
g2227
sg64
(lp2234
S'<mod_wsgi.Input object at 0x10d14d4b0>'
p2235
asbasbasbag57
(g73
g59
NtRp2236
(dp2237
g62
(dp2238
sg71
g1033
sg64
(lp2239
g57
(g78
g59
NtRp2240
(dp2241
g62
(dp2242
g82
g83
ssg71
g2236
sg64
(lp2243
S'wsgi_multiprocess'
p2244
asbag57
(g78
g59
NtRp2245
(dp2246
g62
(dp2247
g89
g90
ssg71
g2236
sg64
(lp2248
S':'
asbag57
(g78
g59
NtRp2249
(dp2250
g62
(dp2251
sg71
g2236
sg64
(lp2252
g57
(g58
g59
NtRp2253
(dp2254
g62
(dp2255
g70
I4
ssg71
g2249
sg64
(lp2256
S'True'
p2257
asbasbasbag57
(g73
g59
NtRp2258
(dp2259
g62
(dp2260
sg71
g1033
sg64
(lp2261
g57
(g78
g59
NtRp2262
(dp2263
g62
(dp2264
g82
g83
ssg71
g2258
sg64
(lp2265
S'wsgi_multithread'
p2266
asbag57
(g78
g59
NtRp2267
(dp2268
g62
(dp2269
g89
g90
ssg71
g2258
sg64
(lp2270
S':'
asbag57
(g78
g59
NtRp2271
(dp2272
g62
(dp2273
sg71
g2258
sg64
(lp2274
g57
(g58
g59
NtRp2275
(dp2276
g62
(dp2277
g70
I4
ssg71
g2271
sg64
(lp2278
g100
asbasbasbag57
(g73
g59
NtRp2279
(dp2280
g62
(dp2281
sg71
g1033
sg64
(lp2282
g57
(g78
g59
NtRp2283
(dp2284
g62
(dp2285
g82
g83
ssg71
g2279
sg64
(lp2286
S'wsgi_run_once'
p2287
asbag57
(g78
g59
NtRp2288
(dp2289
g62
(dp2290
g89
g90
ssg71
g2279
sg64
(lp2291
S':'
asbag57
(g78
g59
NtRp2292
(dp2293
g62
(dp2294
sg71
g2279
sg64
(lp2295
g57
(g58
g59
NtRp2296
(dp2297
g62
(dp2298
g70
I4
ssg71
g2292
sg64
(lp2299
g100
asbasbasbag57
(g73
g59
NtRp2300
(dp2301
g62
(dp2302
sg71
g1033
sg64
(lp2303
g57
(g78
g59
NtRp2304
(dp2305
g62
(dp2306
g82
g83
ssg71
g2300
sg64
(lp2307
S'wsgi_url_scheme'
p2308
asbag57
(g78
g59
NtRp2309
(dp2310
g62
(dp2311
g89
g90
ssg71
g2300
sg64
(lp2312
S':'
asbag57
(g78
g59
NtRp2313
(dp2314
g62
(dp2315
sg71
g2300
sg64
(lp2316
g57
(g58
g59
NtRp2317
(dp2318
g62
(dp2319
g70
I4
ssg71
g2313
sg64
(lp2320
S'http'
p2321
asbasbasbag57
(g73
g59
NtRp2322
(dp2323
g62
(dp2324
sg71
g1033
sg64
(lp2325
g57
(g78
g59
NtRp2326
(dp2327
g62
(dp2328
g82
g83
ssg71
g2322
sg64
(lp2329
S'wsgi_version'
p2330
asbag57
(g78
g59
NtRp2331
(dp2332
g62
(dp2333
g89
g90
ssg71
g2322
sg64
(lp2334
S':'
asbag57
(g78
g59
NtRp2335
(dp2336
g62
(dp2337
sg71
g2322
sg64
(lp2338
g57
(g58
g59
NtRp2339
(dp2340
g62
(dp2341
g70
I4
ssg71
g2335
sg64
(lp2342
g57
(g66
g59
NtRp2343
(dp2344
g62
(dp2345
g70
I3
ssg71
Nsg64
(lp2346
g57
(g73
g59
NtRp2347
(dp2348
g62
(dp2349
sg71
g2343
sg64
(lp2350
g57
(g78
g59
NtRp2351
(dp2352
g62
(dp2353
sg71
g2347
sg64
(lp2354
g57
(g58
g59
NtRp2355
(dp2356
g62
(dp2357
g70
I3
ssg71
g2351
sg64
(lp2358
S'1'
asbasbasbag57
(g73
g59
NtRp2359
(dp2360
g62
(dp2361
sg71
g2343
sg64
(lp2362
g57
(g78
g59
NtRp2363
(dp2364
g62
(dp2365
sg71
g2359
sg64
(lp2366
g57
(g58
g59
NtRp2367
(dp2368
g62
(dp2369
g70
I3
ssg71
g2363
sg64
(lp2370
S'0'
asbasbasbasbasbasbasbasbasbasbasbag57
(g73
g59
NtRp2371
(dp2372
g62
(dp2373
sg71
g67
sg64
(lp2374
g57
(g78
g59
NtRp2375
(dp2376
g62
(dp2377
g82
g83
ssg71
g2371
sg64
(lp2378
S'extension'
p2379
asbag57
(g78
g59
NtRp2380
(dp2381
g62
(dp2382
g89
g90
ssg71
g2371
sg64
(lp2383
S':'
asbag57
(g78
g59
NtRp2384
(dp2385
g62
(dp2386
sg71
g2371
sg64
(lp2387
g57
(g58
g59
NtRp2388
(dp2389
g62
(dp2390
g70
I5
ssg71
g2384
sg64
(lp2391
S'html'
p2392
asbasbasbag57
(g73
g59
NtRp2393
(dp2394
g62
(dp2395
sg71
g67
sg64
(lp2396
g57
(g78
g59
NtRp2397
(dp2398
g62
(dp2399
g82
g83
ssg71
g2393
sg64
(lp2400
S'folder'
p2401
asbag57
(g78
g59
NtRp2402
(dp2403
g62
(dp2404
g89
g90
ssg71
g2393
sg64
(lp2405
S':'
asbag57
(g78
g59
NtRp2406
(dp2407
g62
(dp2408
sg71
g2393
sg64
(lp2409
g57
(g58
g59
NtRp2410
(dp2411
g62
(dp2412
g70
I5
ssg71
g2406
sg64
(lp2413
S'/Users/joselara/www/web2py/applications/randomwords/'
p2414
asbasbasbag57
(g73
g59
NtRp2415
(dp2416
g62
(dp2417
sg71
g67
sg64
(lp2418
g57
(g78
g59
NtRp2419
(dp2420
g62
(dp2421
g82
g83
ssg71
g2415
sg64
(lp2422
S'function'
p2423
asbag57
(g78
g59
NtRp2424
(dp2425
g62
(dp2426
g89
g90
ssg71
g2415
sg64
(lp2427
S':'
asbag57
(g78
g59
NtRp2428
(dp2429
g62
(dp2430
sg71
g2415
sg64
(lp2431
g57
(g58
g59
NtRp2432
(dp2433
g62
(dp2434
g70
I5
ssg71
g2428
sg64
(lp2435
S'index'
p2436
asbasbasbag57
(g73
g59
NtRp2437
(dp2438
g62
(dp2439
sg71
g67
sg64
(lp2440
g57
(g78
g59
NtRp2441
(dp2442
g62
(dp2443
g82
g83
ssg71
g2437
sg64
(lp2444
S'get_vars'
p2445
asbag57
(g78
g59
NtRp2446
(dp2447
g62
(dp2448
g89
g90
ssg71
g2437
sg64
(lp2449
S':'
asbag57
(g78
g59
NtRp2450
(dp2451
g62
(dp2452
sg71
g2437
sg64
(lp2453
g57
(g58
g59
NtRp2454
(dp2455
g62
(dp2456
g70
I5
ssg71
g2450
sg64
(lp2457
g57
(g66
g59
NtRp2458
(dp2459
g62
(dp2460
g70
I4
ssg71
Nsg64
(lp2461
sbasbasbasbag57
(g73
g59
NtRp2462
(dp2463
g62
(dp2464
sg71
g67
sg64
(lp2465
g57
(g78
g59
NtRp2466
(dp2467
g62
(dp2468
g82
g83
ssg71
g2462
sg64
(lp2469
S'global_settings'
p2470
asbag57
(g78
g59
NtRp2471
(dp2472
g62
(dp2473
g89
g90
ssg71
g2462
sg64
(lp2474
S':'
asbag57
(g78
g59
NtRp2475
(dp2476
g62
(dp2477
sg71
g2462
sg64
(lp2478
g57
(g58
g59
NtRp2479
(dp2480
g62
(dp2481
g70
I5
ssg71
g2475
sg64
(lp2482
g57
(g66
g59
NtRp2483
(dp2484
g62
(dp2485
g70
I4
ssg71
Nsg64
(lp2486
g57
(g73
g59
NtRp2487
(dp2488
g62
(dp2489
sg71
g2483
sg64
(lp2490
g57
(g78
g59
NtRp2491
(dp2492
g62
(dp2493
g82
g83
ssg71
g2487
sg64
(lp2494
g1045
asbag57
(g78
g59
NtRp2495
(dp2496
g62
(dp2497
g89
g90
ssg71
g2487
sg64
(lp2498
S':'
asbag57
(g78
g59
NtRp2499
(dp2500
g62
(dp2501
sg71
g2487
sg64
(lp2502
g57
(g58
g59
NtRp2503
(dp2504
g62
(dp2505
g70
I4
ssg71
g2499
sg64
(lp2506
S"set(['/Users/joselara/www/web2py/applications/fayol/', '/Users/joselara/www/web2py/applications/randomwords/'])"
p2507
asbasbasbag57
(g73
g59
NtRp2508
(dp2509
g62
(dp2510
sg71
g2483
sg64
(lp2511
g57
(g78
g59
NtRp2512
(dp2513
g62
(dp2514
g82
g83
ssg71
g2508
sg64
(lp2515
g1067
asbag57
(g78
g59
NtRp2516
(dp2517
g62
(dp2518
g89
g90
ssg71
g2508
sg64
(lp2519
S':'
asbag57
(g78
g59
NtRp2520
(dp2521
g62
(dp2522
sg71
g2508
sg64
(lp2523
g57
(g58
g59
NtRp2524
(dp2525
g62
(dp2526
g70
I4
ssg71
g2520
sg64
(lp2527
g1080
asbasbasbag57
(g73
g59
NtRp2528
(dp2529
g62
(dp2530
sg71
g2483
sg64
(lp2531
g57
(g78
g59
NtRp2532
(dp2533
g62
(dp2534
g82
g83
ssg71
g2528
sg64
(lp2535
g1089
asbag57
(g78
g59
NtRp2536
(dp2537
g62
(dp2538
g89
g90
ssg71
g2528
sg64
(lp2539
S':'
asbag57
(g78
g59
NtRp2540
(dp2541
g62
(dp2542
sg71
g2528
sg64
(lp2543
g57
(g58
g59
NtRp2544
(dp2545
g62
(dp2546
g70
I4
ssg71
g2540
sg64
(lp2547
S'set([])'
p2548
asbasbasbag57
(g73
g59
NtRp2549
(dp2550
g62
(dp2551
sg71
g2483
sg64
(lp2552
g57
(g78
g59
NtRp2553
(dp2554
g62
(dp2555
g82
g83
ssg71
g2549
sg64
(lp2556
g1111
asbag57
(g78
g59
NtRp2557
(dp2558
g62
(dp2559
g89
g90
ssg71
g2549
sg64
(lp2560
S':'
asbag57
(g78
g59
NtRp2561
(dp2562
g62
(dp2563
sg71
g2549
sg64
(lp2564
g57
(g58
g59
NtRp2565
(dp2566
g62
(dp2567
g70
I4
ssg71
g2561
sg64
(lp2568
g100
asbasbasbag57
(g73
g59
NtRp2569
(dp2570
g62
(dp2571
sg71
g2483
sg64
(lp2572
g57
(g78
g59
NtRp2573
(dp2574
g62
(dp2575
g82
g83
ssg71
g2569
sg64
(lp2576
g1176
asbag57
(g78
g59
NtRp2577
(dp2578
g62
(dp2579
g89
g90
ssg71
g2569
sg64
(lp2580
S':'
asbag57
(g78
g59
NtRp2581
(dp2582
g62
(dp2583
sg71
g2569
sg64
(lp2584
g57
(g58
g59
NtRp2585
(dp2586
g62
(dp2587
g70
I4
ssg71
g2581
sg64
(lp2588
g1080
asbasbasbag57
(g73
g59
NtRp2589
(dp2590
g62
(dp2591
sg71
g2483
sg64
(lp2592
g57
(g78
g59
NtRp2593
(dp2594
g62
(dp2595
g82
g83
ssg71
g2589
sg64
(lp2596
g1395
asbag57
(g78
g59
NtRp2597
(dp2598
g62
(dp2599
g89
g90
ssg71
g2589
sg64
(lp2600
S':'
asbag57
(g78
g59
NtRp2601
(dp2602
g62
(dp2603
sg71
g2589
sg64
(lp2604
g57
(g58
g59
NtRp2605
(dp2606
g62
(dp2607
g70
I4
ssg71
g2601
sg64
(lp2608
g100
asbasbasbag57
(g73
g59
NtRp2609
(dp2610
g62
(dp2611
sg71
g2483
sg64
(lp2612
g57
(g78
g59
NtRp2613
(dp2614
g62
(dp2615
g82
g83
ssg71
g2609
sg64
(lp2616
g1416
asbag57
(g78
g59
NtRp2617
(dp2618
g62
(dp2619
g89
g90
ssg71
g2609
sg64
(lp2620
S':'
asbag57
(g78
g59
NtRp2621
(dp2622
g62
(dp2623
sg71
g2609
sg64
(lp2624
g57
(g58
g59
NtRp2625
(dp2626
g62
(dp2627
g70
I4
ssg71
g2621
sg64
(lp2628
g100
asbasbasbag57
(g73
g59
NtRp2629
(dp2630
g62
(dp2631
sg71
g2483
sg64
(lp2632
g57
(g78
g59
NtRp2633
(dp2634
g62
(dp2635
g82
g83
ssg71
g2629
sg64
(lp2636
g2091
asbag57
(g78
g59
NtRp2637
(dp2638
g62
(dp2639
g89
g90
ssg71
g2629
sg64
(lp2640
S':'
asbag57
(g78
g59
NtRp2641
(dp2642
g62
(dp2643
sg71
g2629
sg64
(lp2644
g57
(g58
g59
NtRp2645
(dp2646
g62
(dp2647
g70
I4
ssg71
g2641
sg64
(lp2648
g57
(g66
g59
NtRp2649
(dp2650
g62
(dp2651
g70
I3
ssg71
Nsg64
(lp2652
g57
(g73
g59
NtRp2653
(dp2654
g62
(dp2655
sg71
g2649
sg64
(lp2656
g57
(g78
g59
NtRp2657
(dp2658
g62
(dp2659
sg71
g2653
sg64
(lp2660
g57
(g58
g59
NtRp2661
(dp2662
g62
(dp2663
g70
I3
ssg71
g2657
sg64
(lp2664
S'2'
asbasbasbag57
(g73
g59
NtRp2665
(dp2666
g62
(dp2667
sg71
g2649
sg64
(lp2668
g57
(g78
g59
NtRp2669
(dp2670
g62
(dp2671
sg71
g2665
sg64
(lp2672
g57
(g58
g59
NtRp2673
(dp2674
g62
(dp2675
g70
I3
ssg71
g2669
sg64
(lp2676
S'0'
asbasbasbag57
(g73
g59
NtRp2677
(dp2678
g62
(dp2679
sg71
g2649
sg64
(lp2680
g57
(g78
g59
NtRp2681
(dp2682
g62
(dp2683
sg71
g2677
sg64
(lp2684
g57
(g58
g59
NtRp2685
(dp2686
g62
(dp2687
g70
I3
ssg71
g2681
sg64
(lp2688
S'9'
asbasbasbag57
(g73
g59
NtRp2689
(dp2690
g62
(dp2691
sg71
g2649
sg64
(lp2692
g57
(g78
g59
NtRp2693
(dp2694
g62
(dp2695
sg71
g2689
sg64
(lp2696
g57
(g58
g59
NtRp2697
(dp2698
g62
(dp2699
g70
I3
ssg71
g2693
sg64
(lp2700
S'datetime.datetime(2012, 9, 13, 23, 51, 30)'
p2701
asbasbasbag57
(g73
g59
NtRp2702
(dp2703
g62
(dp2704
sg71
g2649
sg64
(lp2705
g57
(g78
g59
NtRp2706
(dp2707
g62
(dp2708
sg71
g2702
sg64
(lp2709
g57
(g58
g59
NtRp2710
(dp2711
g62
(dp2712
g70
I3
ssg71
g2706
sg64
(lp2713
g2169
asbasbasbasbasbasbasbasbasbasbasbag57
(g73
g59
NtRp2714
(dp2715
g62
(dp2716
sg71
g67
sg64
(lp2717
g57
(g78
g59
NtRp2718
(dp2719
g62
(dp2720
g82
g83
ssg71
g2714
sg64
(lp2721
S'is_https'
p2722
asbag57
(g78
g59
NtRp2723
(dp2724
g62
(dp2725
g89
g90
ssg71
g2714
sg64
(lp2726
S':'
asbag57
(g78
g59
NtRp2727
(dp2728
g62
(dp2729
sg71
g2714
sg64
(lp2730
g57
(g58
g59
NtRp2731
(dp2732
g62
(dp2733
g70
I5
ssg71
g2727
sg64
(lp2734
g100
asbasbasbag57
(g73
g59
NtRp2735
(dp2736
g62
(dp2737
sg71
g67
sg64
(lp2738
g57
(g78
g59
NtRp2739
(dp2740
g62
(dp2741
g82
g83
ssg71
g2735
sg64
(lp2742
S'is_local'
p2743
asbag57
(g78
g59
NtRp2744
(dp2745
g62
(dp2746
g89
g90
ssg71
g2735
sg64
(lp2747
S':'
asbag57
(g78
g59
NtRp2748
(dp2749
g62
(dp2750
sg71
g2735
sg64
(lp2751
g57
(g58
g59
NtRp2752
(dp2753
g62
(dp2754
g70
I5
ssg71
g2748
sg64
(lp2755
g2257
asbasbasbag57
(g73
g59
NtRp2756
(dp2757
g62
(dp2758
sg71
g67
sg64
(lp2759
g57
(g78
g59
NtRp2760
(dp2761
g62
(dp2762
g82
g83
ssg71
g2756
sg64
(lp2763
S'is_restful'
p2764
asbag57
(g78
g59
NtRp2765
(dp2766
g62
(dp2767
g89
g90
ssg71
g2756
sg64
(lp2768
S':'
asbag57
(g78
g59
NtRp2769
(dp2770
g62
(dp2771
sg71
g2756
sg64
(lp2772
g57
(g58
g59
NtRp2773
(dp2774
g62
(dp2775
g70
I5
ssg71
g2769
sg64
(lp2776
g100
asbasbasbag57
(g73
g59
NtRp2777
(dp2778
g62
(dp2779
sg71
g67
sg64
(lp2780
g57
(g78
g59
NtRp2781
(dp2782
g62
(dp2783
g82
g83
ssg71
g2777
sg64
(lp2784
S'now'
p2785
asbag57
(g78
g59
NtRp2786
(dp2787
g62
(dp2788
g89
g90
ssg71
g2777
sg64
(lp2789
S':'
asbag57
(g78
g59
NtRp2790
(dp2791
g62
(dp2792
sg71
g2777
sg64
(lp2793
g57
(g58
g59
NtRp2794
(dp2795
g62
(dp2796
g70
I5
ssg71
g2790
sg64
(lp2797
S'datetime.datetime(2012, 10, 24, 1, 28, 46, 632294)'
p2798
asbasbasbag57
(g73
g59
NtRp2799
(dp2800
g62
(dp2801
sg71
g67
sg64
(lp2802
g57
(g78
g59
NtRp2803
(dp2804
g62
(dp2805
g82
g83
ssg71
g2799
sg64
(lp2806
S'post_vars'
p2807
asbag57
(g78
g59
NtRp2808
(dp2809
g62
(dp2810
g89
g90
ssg71
g2799
sg64
(lp2811
S':'
asbag57
(g78
g59
NtRp2812
(dp2813
g62
(dp2814
sg71
g2799
sg64
(lp2815
g57
(g58
g59
NtRp2816
(dp2817
g62
(dp2818
g70
I5
ssg71
g2812
sg64
(lp2819
g57
(g66
g59
NtRp2820
(dp2821
g62
(dp2822
g70
I4
ssg71
Nsg64
(lp2823
sbasbasbasbag57
(g73
g59
NtRp2824
(dp2825
g62
(dp2826
sg71
g67
sg64
(lp2827
g57
(g78
g59
NtRp2828
(dp2829
g62
(dp2830
g82
g83
ssg71
g2824
sg64
(lp2831
S'raw_args'
p2832
asbag57
(g78
g59
NtRp2833
(dp2834
g62
(dp2835
g89
g90
ssg71
g2824
sg64
(lp2836
S':'
asbag57
(g78
g59
NtRp2837
(dp2838
g62
(dp2839
sg71
g2824
sg64
(lp2840
g57
(g58
g59
NtRp2841
(dp2842
g62
(dp2843
g70
I5
ssg71
g2837
sg64
(lp2844
S'None'
p2845
asbasbasbag57
(g73
g59
NtRp2846
(dp2847
g62
(dp2848
sg71
g67
sg64
(lp2849
g57
(g78
g59
NtRp2850
(dp2851
g62
(dp2852
g82
g83
ssg71
g2846
sg64
(lp2853
S'raw_extension'
p2854
asbag57
(g78
g59
NtRp2855
(dp2856
g62
(dp2857
g89
g90
ssg71
g2846
sg64
(lp2858
S':'
asbag57
(g78
g59
NtRp2859
(dp2860
g62
(dp2861
sg71
g2846
sg64
(lp2862
g57
(g58
g59
NtRp2863
(dp2864
g62
(dp2865
g70
I5
ssg71
g2859
sg64
(lp2866
S'None'
p2867
asbasbasbag57
(g73
g59
NtRp2868
(dp2869
g62
(dp2870
sg71
g67
sg64
(lp2871
g57
(g78
g59
NtRp2872
(dp2873
g62
(dp2874
g82
g83
ssg71
g2868
sg64
(lp2875
S'url'
p2876
asbag57
(g78
g59
NtRp2877
(dp2878
g62
(dp2879
g89
g90
ssg71
g2868
sg64
(lp2880
S':'
asbag57
(g78
g59
NtRp2881
(dp2882
g62
(dp2883
sg71
g2868
sg64
(lp2884
g57
(g58
g59
NtRp2885
(dp2886
g62
(dp2887
g70
I5
ssg71
g2881
sg64
(lp2888
g1735
asbasbasbag57
(g73
g59
NtRp2889
(dp2890
g62
(dp2891
sg71
g67
sg64
(lp2892
g57
(g78
g59
NtRp2893
(dp2894
g62
(dp2895
g82
g83
ssg71
g2889
sg64
(lp2896
S'utcnow'
p2897
asbag57
(g78
g59
NtRp2898
(dp2899
g62
(dp2900
g89
g90
ssg71
g2889
sg64
(lp2901
S':'
asbag57
(g78
g59
NtRp2902
(dp2903
g62
(dp2904
sg71
g2889
sg64
(lp2905
g57
(g58
g59
NtRp2906
(dp2907
g62
(dp2908
g70
I5
ssg71
g2902
sg64
(lp2909
S'datetime.datetime(2012, 10, 24, 6, 28, 46, 632385)'
p2910
asbasbasbag57
(g73
g59
NtRp2911
(dp2912
g62
(dp2913
sg71
g67
sg64
(lp2914
g57
(g78
g59
NtRp2915
(dp2916
g62
(dp2917
g82
g83
ssg71
g2911
sg64
(lp2918
S'uuid'
p2919
asbag57
(g78
g59
NtRp2920
(dp2921
g62
(dp2922
g89
g90
ssg71
g2911
sg64
(lp2923
S':'
asbag57
(g78
g59
NtRp2924
(dp2925
g62
(dp2926
sg71
g2911
sg64
(lp2927
g57
(g58
g59
NtRp2928
(dp2929
g62
(dp2930
g70
I5
ssg71
g2924
sg64
(lp2931
S'randomwords/127.0.0.1.2012-10-24.01-28-46.11162fa1-d320-404e-8878-4eb0009ca9dd'
p2932
asbasbasbag57
(g73
g59
NtRp2933
(dp2934
g62
(dp2935
sg71
g67
sg64
(lp2936
g57
(g78
g59
NtRp2937
(dp2938
g62
(dp2939
g82
g83
ssg71
g2933
sg64
(lp2940
S'vars'
p2941
asbag57
(g78
g59
NtRp2942
(dp2943
g62
(dp2944
g89
g90
ssg71
g2933
sg64
(lp2945
S':'
asbag57
(g78
g59
NtRp2946
(dp2947
g62
(dp2948
sg71
g2933
sg64
(lp2949
g57
(g58
g59
NtRp2950
(dp2951
g62
(dp2952
g70
I5
ssg71
g2946
sg64
(lp2953
g57
(g66
g59
NtRp2954
(dp2955
g62
(dp2956
g70
I4
ssg71
Nsg64
(lp2957
sbasbasbasbag57
(g73
g59
NtRp2958
(dp2959
g62
(dp2960
sg71
g67
sg64
(lp2961
g57
(g78
g59
NtRp2962
(dp2963
g62
(dp2964
g82
g83
ssg71
g2958
sg64
(lp2965
S'wsgi'
p2966
asbag57
(g78
g59
NtRp2967
(dp2968
g62
(dp2969
g89
g90
ssg71
g2958
sg64
(lp2970
S':'
asbag57
(g78
g59
NtRp2971
(dp2972
g62
(dp2973
sg71
g2958
sg64
(lp2974
g57
(g58
g59
NtRp2975
(dp2976
g62
(dp2977
g70
I5
ssg71
g2971
sg64
(lp2978
g57
(g66
g59
NtRp2979
(dp2980
g62
(dp2981
g70
I4
ssg71
Nsg64
(lp2982
g57
(g73
g59
NtRp2983
(dp2984
g62
(dp2985
sg71
g2979
sg64
(lp2986
g57
(g78
g59
NtRp2987
(dp2988
g62
(dp2989
g82
g83
ssg71
g2983
sg64
(lp2990
S'environ'
p2991
asbag57
(g78
g59
NtRp2992
(dp2993
g62
(dp2994
g89
g90
ssg71
g2983
sg64
(lp2995
S':'
asbag57
(g78
g59
NtRp2996
(dp2997
g62
(dp2998
sg71
g2983
sg64
(lp2999
g57
(g58
g59
NtRp3000
(dp3001
g62
(dp3002
g70
I4
ssg71
g2996
sg64
(lp3003
g57
(g66
g59
NtRp3004
(dp3005
g62
(dp3006
g70
I3
ssg71
Nsg64
(lp3007
g57
(g73
g59
NtRp3008
(dp3009
g62
(dp3010
sg71
g3004
sg64
(lp3011
g57
(g78
g59
NtRp3012
(dp3013
g62
(dp3014
g82
g83
ssg71
g3008
sg64
(lp3015
S'DOCUMENT_ROOT'
p3016
asbag57
(g78
g59
NtRp3017
(dp3018
g62
(dp3019
g89
g90
ssg71
g3008
sg64
(lp3020
S':'
asbag57
(g78
g59
NtRp3021
(dp3022
g62
(dp3023
sg71
g3008
sg64
(lp3024
g57
(g58
g59
NtRp3025
(dp3026
g62
(dp3027
g70
I3
ssg71
g3021
sg64
(lp3028
g1145
asbasbasbag57
(g73
g59
NtRp3029
(dp3030
g62
(dp3031
sg71
g3004
sg64
(lp3032
g57
(g78
g59
NtRp3033
(dp3034
g62
(dp3035
g82
g83
ssg71
g3029
sg64
(lp3036
S'GATEWAY_INTERFACE'
p3037
asbag57
(g78
g59
NtRp3038
(dp3039
g62
(dp3040
g89
g90
ssg71
g3029
sg64
(lp3041
S':'
asbag57
(g78
g59
NtRp3042
(dp3043
g62
(dp3044
sg71
g3029
sg64
(lp3045
g57
(g58
g59
NtRp3046
(dp3047
g62
(dp3048
g70
I3
ssg71
g3042
sg64
(lp3049
g1167
asbasbasbag57
(g73
g59
NtRp3050
(dp3051
g62
(dp3052
sg71
g3004
sg64
(lp3053
g57
(g78
g59
NtRp3054
(dp3055
g62
(dp3056
g82
g83
ssg71
g3050
sg64
(lp3057
S'HTTP_ACCEPT'
p3058
asbag57
(g78
g59
NtRp3059
(dp3060
g62
(dp3061
g89
g90
ssg71
g3050
sg64
(lp3062
S':'
asbag57
(g78
g59
NtRp3063
(dp3064
g62
(dp3065
sg71
g3050
sg64
(lp3066
g57
(g58
g59
NtRp3067
(dp3068
g62
(dp3069
g70
I3
ssg71
g3063
sg64
(lp3070
g1210
asbasbasbag57
(g73
g59
NtRp3071
(dp3072
g62
(dp3073
sg71
g3004
sg64
(lp3074
g57
(g78
g59
NtRp3075
(dp3076
g62
(dp3077
g82
g83
ssg71
g3071
sg64
(lp3078
S'HTTP_ACCEPT_CHARSET'
p3079
asbag57
(g78
g59
NtRp3080
(dp3081
g62
(dp3082
g89
g90
ssg71
g3071
sg64
(lp3083
S':'
asbag57
(g78
g59
NtRp3084
(dp3085
g62
(dp3086
sg71
g3071
sg64
(lp3087
g57
(g58
g59
NtRp3088
(dp3089
g62
(dp3090
g70
I3
ssg71
g3084
sg64
(lp3091
g1232
asbasbasbag57
(g73
g59
NtRp3092
(dp3093
g62
(dp3094
sg71
g3004
sg64
(lp3095
g57
(g78
g59
NtRp3096
(dp3097
g62
(dp3098
g82
g83
ssg71
g3092
sg64
(lp3099
S'HTTP_ACCEPT_ENCODING'
p3100
asbag57
(g78
g59
NtRp3101
(dp3102
g62
(dp3103
g89
g90
ssg71
g3092
sg64
(lp3104
S':'
asbag57
(g78
g59
NtRp3105
(dp3106
g62
(dp3107
sg71
g3092
sg64
(lp3108
g57
(g58
g59
NtRp3109
(dp3110
g62
(dp3111
g70
I3
ssg71
g3105
sg64
(lp3112
g1254
asbasbasbag57
(g73
g59
NtRp3113
(dp3114
g62
(dp3115
sg71
g3004
sg64
(lp3116
g57
(g78
g59
NtRp3117
(dp3118
g62
(dp3119
g82
g83
ssg71
g3113
sg64
(lp3120
S'HTTP_ACCEPT_LANGUAGE'
p3121
asbag57
(g78
g59
NtRp3122
(dp3123
g62
(dp3124
g89
g90
ssg71
g3113
sg64
(lp3125
S':'
asbag57
(g78
g59
NtRp3126
(dp3127
g62
(dp3128
sg71
g3113
sg64
(lp3129
g57
(g58
g59
NtRp3130
(dp3131
g62
(dp3132
g70
I3
ssg71
g3126
sg64
(lp3133
g1276
asbasbasbag57
(g73
g59
NtRp3134
(dp3135
g62
(dp3136
sg71
g3004
sg64
(lp3137
g57
(g78
g59
NtRp3138
(dp3139
g62
(dp3140
g82
g83
ssg71
g3134
sg64
(lp3141
S'HTTP_CACHE_CONTROL'
p3142
asbag57
(g78
g59
NtRp3143
(dp3144
g62
(dp3145
g89
g90
ssg71
g3134
sg64
(lp3146
S':'
asbag57
(g78
g59
NtRp3147
(dp3148
g62
(dp3149
sg71
g3134
sg64
(lp3150
g57
(g58
g59
NtRp3151
(dp3152
g62
(dp3153
g70
I3
ssg71
g3147
sg64
(lp3154
g1298
asbasbasbag57
(g73
g59
NtRp3155
(dp3156
g62
(dp3157
sg71
g3004
sg64
(lp3158
g57
(g78
g59
NtRp3159
(dp3160
g62
(dp3161
g82
g83
ssg71
g3155
sg64
(lp3162
S'HTTP_CONNECTION'
p3163
asbag57
(g78
g59
NtRp3164
(dp3165
g62
(dp3166
g89
g90
ssg71
g3155
sg64
(lp3167
S':'
asbag57
(g78
g59
NtRp3168
(dp3169
g62
(dp3170
sg71
g3155
sg64
(lp3171
g57
(g58
g59
NtRp3172
(dp3173
g62
(dp3174
g70
I3
ssg71
g3168
sg64
(lp3175
g1320
asbasbasbag57
(g73
g59
NtRp3176
(dp3177
g62
(dp3178
sg71
g3004
sg64
(lp3179
g57
(g78
g59
NtRp3180
(dp3181
g62
(dp3182
g82
g83
ssg71
g3176
sg64
(lp3183
S'HTTP_COOKIE'
p3184
asbag57
(g78
g59
NtRp3185
(dp3186
g62
(dp3187
g89
g90
ssg71
g3176
sg64
(lp3188
S':'
asbag57
(g78
g59
NtRp3189
(dp3190
g62
(dp3191
sg71
g3176
sg64
(lp3192
g57
(g58
g59
NtRp3193
(dp3194
g62
(dp3195
g70
I3
ssg71
g3189
sg64
(lp3196
g1342
asbasbasbag57
(g73
g59
NtRp3197
(dp3198
g62
(dp3199
sg71
g3004
sg64
(lp3200
g57
(g78
g59
NtRp3201
(dp3202
g62
(dp3203
g82
g83
ssg71
g3197
sg64
(lp3204
S'HTTP_HOST'
p3205
asbag57
(g78
g59
NtRp3206
(dp3207
g62
(dp3208
g89
g90
ssg71
g3197
sg64
(lp3209
S':'
asbag57
(g78
g59
NtRp3210
(dp3211
g62
(dp3212
sg71
g3197
sg64
(lp3213
g57
(g58
g59
NtRp3214
(dp3215
g62
(dp3216
g70
I3
ssg71
g3210
sg64
(lp3217
g1364
asbasbasbag57
(g73
g59
NtRp3218
(dp3219
g62
(dp3220
sg71
g3004
sg64
(lp3221
g57
(g78
g59
NtRp3222
(dp3223
g62
(dp3224
g82
g83
ssg71
g3218
sg64
(lp3225
S'HTTP_USER_AGENT'
p3226
asbag57
(g78
g59
NtRp3227
(dp3228
g62
(dp3229
g89
g90
ssg71
g3218
sg64
(lp3230
S':'
asbag57
(g78
g59
NtRp3231
(dp3232
g62
(dp3233
sg71
g3218
sg64
(lp3234
g57
(g58
g59
NtRp3235
(dp3236
g62
(dp3237
g70
I3
ssg71
g3231
sg64
(lp3238
g1386
asbasbasbag57
(g73
g59
NtRp3239
(dp3240
g62
(dp3241
sg71
g3004
sg64
(lp3242
g57
(g78
g59
NtRp3243
(dp3244
g62
(dp3245
g82
g83
ssg71
g3239
sg64
(lp3246
S'PATH_INFO'
p3247
asbag57
(g78
g59
NtRp3248
(dp3249
g62
(dp3250
g89
g90
ssg71
g3239
sg64
(lp3251
S':'
asbag57
(g78
g59
NtRp3252
(dp3253
g62
(dp3254
sg71
g3239
sg64
(lp3255
g57
(g58
g59
NtRp3256
(dp3257
g62
(dp3258
g70
I3
ssg71
g3252
sg64
(lp3259
g1735
asbasbasbag57
(g73
g59
NtRp3260
(dp3261
g62
(dp3262
sg71
g3004
sg64
(lp3263
g57
(g78
g59
NtRp3264
(dp3265
g62
(dp3266
g82
g83
ssg71
g3260
sg64
(lp3267
S'PATH_TRANSLATED'
p3268
asbag57
(g78
g59
NtRp3269
(dp3270
g62
(dp3271
g89
g90
ssg71
g3260
sg64
(lp3272
S':'
asbag57
(g78
g59
NtRp3273
(dp3274
g62
(dp3275
sg71
g3260
sg64
(lp3276
g57
(g58
g59
NtRp3277
(dp3278
g62
(dp3279
g70
I3
ssg71
g3273
sg64
(lp3280
g1757
asbasbasbag57
(g73
g59
NtRp3281
(dp3282
g62
(dp3283
sg71
g3004
sg64
(lp3284
g57
(g78
g59
NtRp3285
(dp3286
g62
(dp3287
g82
g83
ssg71
g3281
sg64
(lp3288
S'QUERY_STRING'
p3289
asbag57
(g78
g59
NtRp3290
(dp3291
g62
(dp3292
g89
g90
ssg71
g3281
sg64
(lp3293
S':'
asbag57
(g78
g59
NtRp3294
(dp3295
g62
(dp3296
sg71
g3281
sg64
(lp3297
g57
(g58
g59
NtRp3298
(dp3299
g62
(dp3300
g70
I3
ssg71
g3294
sg64
(lp3301
S''
asbasbasbag57
(g73
g59
NtRp3302
(dp3303
g62
(dp3304
sg71
g3004
sg64
(lp3305
g57
(g78
g59
NtRp3306
(dp3307
g62
(dp3308
g82
g83
ssg71
g3302
sg64
(lp3309
S'REMOTE_ADDR'
p3310
asbag57
(g78
g59
NtRp3311
(dp3312
g62
(dp3313
g89
g90
ssg71
g3302
sg64
(lp3314
S':'
asbag57
(g78
g59
NtRp3315
(dp3316
g62
(dp3317
sg71
g3302
sg64
(lp3318
g57
(g58
g59
NtRp3319
(dp3320
g62
(dp3321
g70
I3
ssg71
g3315
sg64
(lp3322
g212
asbasbasbag57
(g73
g59
NtRp3323
(dp3324
g62
(dp3325
sg71
g3004
sg64
(lp3326
g57
(g78
g59
NtRp3327
(dp3328
g62
(dp3329
g82
g83
ssg71
g3323
sg64
(lp3330
S'REMOTE_PORT'
p3331
asbag57
(g78
g59
NtRp3332
(dp3333
g62
(dp3334
g89
g90
ssg71
g3323
sg64
(lp3335
S':'
asbag57
(g78
g59
NtRp3336
(dp3337
g62
(dp3338
sg71
g3323
sg64
(lp3339
g57
(g58
g59
NtRp3340
(dp3341
g62
(dp3342
g70
I3
ssg71
g3336
sg64
(lp3343
g1821
asbasbasbag57
(g73
g59
NtRp3344
(dp3345
g62
(dp3346
sg71
g3004
sg64
(lp3347
g57
(g78
g59
NtRp3348
(dp3349
g62
(dp3350
g82
g83
ssg71
g3344
sg64
(lp3351
S'REQUEST_METHOD'
p3352
asbag57
(g78
g59
NtRp3353
(dp3354
g62
(dp3355
g89
g90
ssg71
g3344
sg64
(lp3356
S':'
asbag57
(g78
g59
NtRp3357
(dp3358
g62
(dp3359
sg71
g3344
sg64
(lp3360
g57
(g58
g59
NtRp3361
(dp3362
g62
(dp3363
g70
I3
ssg71
g3357
sg64
(lp3364
g1843
asbasbasbag57
(g73
g59
NtRp3365
(dp3366
g62
(dp3367
sg71
g3004
sg64
(lp3368
g57
(g78
g59
NtRp3369
(dp3370
g62
(dp3371
g82
g83
ssg71
g3365
sg64
(lp3372
S'REQUEST_URI'
p3373
asbag57
(g78
g59
NtRp3374
(dp3375
g62
(dp3376
g89
g90
ssg71
g3365
sg64
(lp3377
S':'
asbag57
(g78
g59
NtRp3378
(dp3379
g62
(dp3380
sg71
g3365
sg64
(lp3381
g57
(g58
g59
NtRp3382
(dp3383
g62
(dp3384
g70
I3
ssg71
g3378
sg64
(lp3385
g1865
asbasbasbag57
(g73
g59
NtRp3386
(dp3387
g62
(dp3388
sg71
g3004
sg64
(lp3389
g57
(g78
g59
NtRp3390
(dp3391
g62
(dp3392
g82
g83
ssg71
g3386
sg64
(lp3393
S'SCRIPT_FILENAME'
p3394
asbag57
(g78
g59
NtRp3395
(dp3396
g62
(dp3397
g89
g90
ssg71
g3386
sg64
(lp3398
S':'
asbag57
(g78
g59
NtRp3399
(dp3400
g62
(dp3401
sg71
g3386
sg64
(lp3402
g57
(g58
g59
NtRp3403
(dp3404
g62
(dp3405
g70
I3
ssg71
g3399
sg64
(lp3406
g1887
asbasbasbag57
(g73
g59
NtRp3407
(dp3408
g62
(dp3409
sg71
g3004
sg64
(lp3410
g57
(g78
g59
NtRp3411
(dp3412
g62
(dp3413
g82
g83
ssg71
g3407
sg64
(lp3414
S'SCRIPT_NAME'
p3415
asbag57
(g78
g59
NtRp3416
(dp3417
g62
(dp3418
g89
g90
ssg71
g3407
sg64
(lp3419
S':'
asbag57
(g78
g59
NtRp3420
(dp3421
g62
(dp3422
sg71
g3407
sg64
(lp3423
g57
(g58
g59
NtRp3424
(dp3425
g62
(dp3426
g70
I3
ssg71
g3420
sg64
(lp3427
S''
asbasbasbag57
(g73
g59
NtRp3428
(dp3429
g62
(dp3430
sg71
g3004
sg64
(lp3431
g57
(g78
g59
NtRp3432
(dp3433
g62
(dp3434
g82
g83
ssg71
g3428
sg64
(lp3435
S'SERVER_ADDR'
p3436
asbag57
(g78
g59
NtRp3437
(dp3438
g62
(dp3439
g89
g90
ssg71
g3428
sg64
(lp3440
S':'
asbag57
(g78
g59
NtRp3441
(dp3442
g62
(dp3443
sg71
g3428
sg64
(lp3444
g57
(g58
g59
NtRp3445
(dp3446
g62
(dp3447
g70
I3
ssg71
g3441
sg64
(lp3448
g1930
asbasbasbag57
(g73
g59
NtRp3449
(dp3450
g62
(dp3451
sg71
g3004
sg64
(lp3452
g57
(g78
g59
NtRp3453
(dp3454
g62
(dp3455
g82
g83
ssg71
g3449
sg64
(lp3456
S'SERVER_ADMIN'
p3457
asbag57
(g78
g59
NtRp3458
(dp3459
g62
(dp3460
g89
g90
ssg71
g3449
sg64
(lp3461
S':'
asbag57
(g78
g59
NtRp3462
(dp3463
g62
(dp3464
sg71
g3449
sg64
(lp3465
g57
(g58
g59
NtRp3466
(dp3467
g62
(dp3468
g70
I3
ssg71
g3462
sg64
(lp3469
g1952
asbasbasbag57
(g73
g59
NtRp3470
(dp3471
g62
(dp3472
sg71
g3004
sg64
(lp3473
g57
(g78
g59
NtRp3474
(dp3475
g62
(dp3476
g82
g83
ssg71
g3470
sg64
(lp3477
S'SERVER_NAME'
p3478
asbag57
(g78
g59
NtRp3479
(dp3480
g62
(dp3481
g89
g90
ssg71
g3470
sg64
(lp3482
S':'
asbag57
(g78
g59
NtRp3483
(dp3484
g62
(dp3485
sg71
g3470
sg64
(lp3486
g57
(g58
g59
NtRp3487
(dp3488
g62
(dp3489
g70
I3
ssg71
g3483
sg64
(lp3490
g1974
asbasbasbag57
(g73
g59
NtRp3491
(dp3492
g62
(dp3493
sg71
g3004
sg64
(lp3494
g57
(g78
g59
NtRp3495
(dp3496
g62
(dp3497
g82
g83
ssg71
g3491
sg64
(lp3498
S'SERVER_PORT'
p3499
asbag57
(g78
g59
NtRp3500
(dp3501
g62
(dp3502
g89
g90
ssg71
g3491
sg64
(lp3503
S':'
asbag57
(g78
g59
NtRp3504
(dp3505
g62
(dp3506
sg71
g3491
sg64
(lp3507
g57
(g58
g59
NtRp3508
(dp3509
g62
(dp3510
g70
I3
ssg71
g3504
sg64
(lp3511
g1996
asbasbasbag57
(g73
g59
NtRp3512
(dp3513
g62
(dp3514
sg71
g3004
sg64
(lp3515
g57
(g78
g59
NtRp3516
(dp3517
g62
(dp3518
g82
g83
ssg71
g3512
sg64
(lp3519
S'SERVER_PROTOCOL'
p3520
asbag57
(g78
g59
NtRp3521
(dp3522
g62
(dp3523
g89
g90
ssg71
g3512
sg64
(lp3524
S':'
asbag57
(g78
g59
NtRp3525
(dp3526
g62
(dp3527
sg71
g3512
sg64
(lp3528
g57
(g58
g59
NtRp3529
(dp3530
g62
(dp3531
g70
I3
ssg71
g3525
sg64
(lp3532
g2018
asbasbasbag57
(g73
g59
NtRp3533
(dp3534
g62
(dp3535
sg71
g3004
sg64
(lp3536
g57
(g78
g59
NtRp3537
(dp3538
g62
(dp3539
g82
g83
ssg71
g3533
sg64
(lp3540
S'SERVER_SIGNATURE'
p3541
asbag57
(g78
g59
NtRp3542
(dp3543
g62
(dp3544
g89
g90
ssg71
g3533
sg64
(lp3545
S':'
asbag57
(g78
g59
NtRp3546
(dp3547
g62
(dp3548
sg71
g3533
sg64
(lp3549
g57
(g58
g59
NtRp3550
(dp3551
g62
(dp3552
g70
I3
ssg71
g3546
sg64
(lp3553
S''
asbasbasbag57
(g73
g59
NtRp3554
(dp3555
g62
(dp3556
sg71
g3004
sg64
(lp3557
g57
(g78
g59
NtRp3558
(dp3559
g62
(dp3560
g82
g83
ssg71
g3554
sg64
(lp3561
S'SERVER_SOFTWARE'
p3562
asbag57
(g78
g59
NtRp3563
(dp3564
g62
(dp3565
g89
g90
ssg71
g3554
sg64
(lp3566
S':'
asbag57
(g78
g59
NtRp3567
(dp3568
g62
(dp3569
sg71
g3554
sg64
(lp3570
g57
(g58
g59
NtRp3571
(dp3572
g62
(dp3573
g70
I3
ssg71
g3567
sg64
(lp3574
g2061
asbasbasbag57
(g73
g59
NtRp3575
(dp3576
g62
(dp3577
sg71
g3004
sg64
(lp3578
g57
(g78
g59
NtRp3579
(dp3580
g62
(dp3581
g82
g83
ssg71
g3575
sg64
(lp3582
S'mod_wsgi.application_group'
p3583
asbag57
(g78
g59
NtRp3584
(dp3585
g62
(dp3586
g89
g90
ssg71
g3575
sg64
(lp3587
S':'
asbag57
(g78
g59
NtRp3588
(dp3589
g62
(dp3590
sg71
g3575
sg64
(lp3591
g57
(g58
g59
NtRp3592
(dp3593
g62
(dp3594
g70
I3
ssg71
g3588
sg64
(lp3595
g1450
asbasbasbag57
(g73
g59
NtRp3596
(dp3597
g62
(dp3598
sg71
g3004
sg64
(lp3599
g57
(g78
g59
NtRp3600
(dp3601
g62
(dp3602
g82
g83
ssg71
g3596
sg64
(lp3603
S'mod_wsgi.callable_object'
p3604
asbag57
(g78
g59
NtRp3605
(dp3606
g62
(dp3607
g89
g90
ssg71
g3596
sg64
(lp3608
S':'
asbag57
(g78
g59
NtRp3609
(dp3610
g62
(dp3611
sg71
g3596
sg64
(lp3612
g57
(g58
g59
NtRp3613
(dp3614
g62
(dp3615
g70
I3
ssg71
g3609
sg64
(lp3616
g1472
asbasbasbag57
(g73
g59
NtRp3617
(dp3618
g62
(dp3619
sg71
g3004
sg64
(lp3620
g57
(g78
g59
NtRp3621
(dp3622
g62
(dp3623
g82
g83
ssg71
g3617
sg64
(lp3624
S'mod_wsgi.enable_sendfile'
p3625
asbag57
(g78
g59
NtRp3626
(dp3627
g62
(dp3628
g89
g90
ssg71
g3617
sg64
(lp3629
S':'
asbag57
(g78
g59
NtRp3630
(dp3631
g62
(dp3632
sg71
g3617
sg64
(lp3633
g57
(g58
g59
NtRp3634
(dp3635
g62
(dp3636
g70
I3
ssg71
g3630
sg64
(lp3637
S'0'
asbasbasbag57
(g73
g59
NtRp3638
(dp3639
g62
(dp3640
sg71
g3004
sg64
(lp3641
g57
(g78
g59
NtRp3642
(dp3643
g62
(dp3644
g82
g83
ssg71
g3638
sg64
(lp3645
S'mod_wsgi.handler_script'
p3646
asbag57
(g78
g59
NtRp3647
(dp3648
g62
(dp3649
g89
g90
ssg71
g3638
sg64
(lp3650
S':'
asbag57
(g78
g59
NtRp3651
(dp3652
g62
(dp3653
sg71
g3638
sg64
(lp3654
g57
(g58
g59
NtRp3655
(dp3656
g62
(dp3657
g70
I3
ssg71
g3651
sg64
(lp3658
S''
asbasbasbag57
(g73
g59
NtRp3659
(dp3660
g62
(dp3661
sg71
g3004
sg64
(lp3662
g57
(g78
g59
NtRp3663
(dp3664
g62
(dp3665
g82
g83
ssg71
g3659
sg64
(lp3666
S'mod_wsgi.input_chunked'
p3667
asbag57
(g78
g59
NtRp3668
(dp3669
g62
(dp3670
g89
g90
ssg71
g3659
sg64
(lp3671
S':'
asbag57
(g78
g59
NtRp3672
(dp3673
g62
(dp3674
sg71
g3659
sg64
(lp3675
g57
(g58
g59
NtRp3676
(dp3677
g62
(dp3678
g70
I3
ssg71
g3672
sg64
(lp3679
S'0'
asbasbasbag57
(g73
g59
NtRp3680
(dp3681
g62
(dp3682
sg71
g3004
sg64
(lp3683
g57
(g78
g59
NtRp3684
(dp3685
g62
(dp3686
g82
g83
ssg71
g3680
sg64
(lp3687
S'mod_wsgi.listener_host'
p3688
asbag57
(g78
g59
NtRp3689
(dp3690
g62
(dp3691
g89
g90
ssg71
g3680
sg64
(lp3692
S':'
asbag57
(g78
g59
NtRp3693
(dp3694
g62
(dp3695
sg71
g3680
sg64
(lp3696
g57
(g58
g59
NtRp3697
(dp3698
g62
(dp3699
g70
I3
ssg71
g3693
sg64
(lp3700
S''
asbasbasbag57
(g73
g59
NtRp3701
(dp3702
g62
(dp3703
sg71
g3004
sg64
(lp3704
g57
(g78
g59
NtRp3705
(dp3706
g62
(dp3707
g82
g83
ssg71
g3701
sg64
(lp3708
S'mod_wsgi.listener_port'
p3709
asbag57
(g78
g59
NtRp3710
(dp3711
g62
(dp3712
g89
g90
ssg71
g3701
sg64
(lp3713
S':'
asbag57
(g78
g59
NtRp3714
(dp3715
g62
(dp3716
sg71
g3701
sg64
(lp3717
g57
(g58
g59
NtRp3718
(dp3719
g62
(dp3720
g70
I3
ssg71
g3714
sg64
(lp3721
g1578
asbasbasbag57
(g73
g59
NtRp3722
(dp3723
g62
(dp3724
sg71
g3004
sg64
(lp3725
g57
(g78
g59
NtRp3726
(dp3727
g62
(dp3728
g82
g83
ssg71
g3722
sg64
(lp3729
S'mod_wsgi.process_group'
p3730
asbag57
(g78
g59
NtRp3731
(dp3732
g62
(dp3733
g89
g90
ssg71
g3722
sg64
(lp3734
S':'
asbag57
(g78
g59
NtRp3735
(dp3736
g62
(dp3737
sg71
g3722
sg64
(lp3738
g57
(g58
g59
NtRp3739
(dp3740
g62
(dp3741
g70
I3
ssg71
g3735
sg64
(lp3742
S''
asbasbasbag57
(g73
g59
NtRp3743
(dp3744
g62
(dp3745
sg71
g3004
sg64
(lp3746
g57
(g78
g59
NtRp3747
(dp3748
g62
(dp3749
g82
g83
ssg71
g3743
sg64
(lp3750
S'mod_wsgi.queue_start'
p3751
asbag57
(g78
g59
NtRp3752
(dp3753
g62
(dp3754
g89
g90
ssg71
g3743
sg64
(lp3755
S':'
asbag57
(g78
g59
NtRp3756
(dp3757
g62
(dp3758
sg71
g3743
sg64
(lp3759
g57
(g58
g59
NtRp3760
(dp3761
g62
(dp3762
g70
I3
ssg71
g3756
sg64
(lp3763
g1621
asbasbasbag57
(g73
g59
NtRp3764
(dp3765
g62
(dp3766
sg71
g3004
sg64
(lp3767
g57
(g78
g59
NtRp3768
(dp3769
g62
(dp3770
g82
g83
ssg71
g3764
sg64
(lp3771
S'mod_wsgi.request_handler'
p3772
asbag57
(g78
g59
NtRp3773
(dp3774
g62
(dp3775
g89
g90
ssg71
g3764
sg64
(lp3776
S':'
asbag57
(g78
g59
NtRp3777
(dp3778
g62
(dp3779
sg71
g3764
sg64
(lp3780
g57
(g58
g59
NtRp3781
(dp3782
g62
(dp3783
g70
I3
ssg71
g3777
sg64
(lp3784
g1643
asbasbasbag57
(g73
g59
NtRp3785
(dp3786
g62
(dp3787
sg71
g3004
sg64
(lp3788
g57
(g78
g59
NtRp3789
(dp3790
g62
(dp3791
g82
g83
ssg71
g3785
sg64
(lp3792
S'mod_wsgi.script_reloading'
p3793
asbag57
(g78
g59
NtRp3794
(dp3795
g62
(dp3796
g89
g90
ssg71
g3785
sg64
(lp3797
S':'
asbag57
(g78
g59
NtRp3798
(dp3799
g62
(dp3800
sg71
g3785
sg64
(lp3801
g57
(g58
g59
NtRp3802
(dp3803
g62
(dp3804
g70
I3
ssg71
g3798
sg64
(lp3805
S'1'
asbasbasbag57
(g73
g59
NtRp3806
(dp3807
g62
(dp3808
sg71
g3004
sg64
(lp3809
g57
(g78
g59
NtRp3810
(dp3811
g62
(dp3812
g82
g83
ssg71
g3806
sg64
(lp3813
S'mod_wsgi.version'
p3814
asbag57
(g78
g59
NtRp3815
(dp3816
g62
(dp3817
g89
g90
ssg71
g3806
sg64
(lp3818
S':'
asbag57
(g78
g59
NtRp3819
(dp3820
g62
(dp3821
sg71
g3806
sg64
(lp3822
g57
(g58
g59
NtRp3823
(dp3824
g62
(dp3825
g70
I3
ssg71
g3819
sg64
(lp3826
g57
(g66
g59
NtRp3827
(dp3828
g62
(dp3829
g70
I2
ssg71
Nsg64
(lp3830
g57
(g73
g59
NtRp3831
(dp3832
g62
(dp3833
sg71
g3827
sg64
(lp3834
g57
(g78
g59
NtRp3835
(dp3836
g62
(dp3837
sg71
g3831
sg64
(lp3838
g57
(g58
g59
NtRp3839
(dp3840
g62
(dp3841
g70
I2
ssg71
g3835
sg64
(lp3842
S'3'
asbasbasbag57
(g73
g59
NtRp3843
(dp3844
g62
(dp3845
sg71
g3827
sg64
(lp3846
g57
(g78
g59
NtRp3847
(dp3848
g62
(dp3849
sg71
g3843
sg64
(lp3850
g57
(g58
g59
NtRp3851
(dp3852
g62
(dp3853
g70
I2
ssg71
g3847
sg64
(lp3854
S'4'
asbasbasbasbasbasbasbag57
(g73
g59
NtRp3855
(dp3856
g62
(dp3857
sg71
g3004
sg64
(lp3858
g57
(g78
g59
NtRp3859
(dp3860
g62
(dp3861
g82
g83
ssg71
g3855
sg64
(lp3862
S'wsgi.errors'
p3863
asbag57
(g78
g59
NtRp3864
(dp3865
g62
(dp3866
g89
g90
ssg71
g3855
sg64
(lp3867
S':'
asbag57
(g78
g59
NtRp3868
(dp3869
g62
(dp3870
sg71
g3855
sg64
(lp3871
g57
(g58
g59
NtRp3872
(dp3873
g62
(dp3874
g70
I3
ssg71
g3868
sg64
(lp3875
S'<mod_wsgi.Log object at 0x10d14d730>'
p3876
asbasbasbag57
(g73
g59
NtRp3877
(dp3878
g62
(dp3879
sg71
g3004
sg64
(lp3880
g57
(g78
g59
NtRp3881
(dp3882
g62
(dp3883
g82
g83
ssg71
g3877
sg64
(lp3884
S'wsgi.file_wrapper'
p3885
asbag57
(g78
g59
NtRp3886
(dp3887
g62
(dp3888
g89
g90
ssg71
g3877
sg64
(lp3889
S':'
asbag57
(g78
g59
NtRp3890
(dp3891
g62
(dp3892
sg71
g3877
sg64
(lp3893
g57
(g58
g59
NtRp3894
(dp3895
g62
(dp3896
g70
I3
ssg71
g3890
sg64
(lp3897
S'<built-in method file_wrapper of mod_wsgi.Adapter object at 0x10d143120>'
p3898
asbasbasbag57
(g73
g59
NtRp3899
(dp3900
g62
(dp3901
sg71
g3004
sg64
(lp3902
g57
(g78
g59
NtRp3903
(dp3904
g62
(dp3905
g82
g83
ssg71
g3899
sg64
(lp3906
S'wsgi.input'
p3907
asbag57
(g78
g59
NtRp3908
(dp3909
g62
(dp3910
g89
g90
ssg71
g3899
sg64
(lp3911
S':'
asbag57
(g78
g59
NtRp3912
(dp3913
g62
(dp3914
sg71
g3899
sg64
(lp3915
g57
(g58
g59
NtRp3916
(dp3917
g62
(dp3918
g70
I3
ssg71
g3912
sg64
(lp3919
S'<cStringIO.StringO object at 0x10d7e52d0>'
p3920
asbasbasbag57
(g73
g59
NtRp3921
(dp3922
g62
(dp3923
sg71
g3004
sg64
(lp3924
g57
(g78
g59
NtRp3925
(dp3926
g62
(dp3927
g82
g83
ssg71
g3921
sg64
(lp3928
S'wsgi.multiprocess'
p3929
asbag57
(g78
g59
NtRp3930
(dp3931
g62
(dp3932
g89
g90
ssg71
g3921
sg64
(lp3933
S':'
asbag57
(g78
g59
NtRp3934
(dp3935
g62
(dp3936
sg71
g3921
sg64
(lp3937
g57
(g58
g59
NtRp3938
(dp3939
g62
(dp3940
g70
I3
ssg71
g3934
sg64
(lp3941
g2257
asbasbasbag57
(g73
g59
NtRp3942
(dp3943
g62
(dp3944
sg71
g3004
sg64
(lp3945
g57
(g78
g59
NtRp3946
(dp3947
g62
(dp3948
g82
g83
ssg71
g3942
sg64
(lp3949
S'wsgi.multithread'
p3950
asbag57
(g78
g59
NtRp3951
(dp3952
g62
(dp3953
g89
g90
ssg71
g3942
sg64
(lp3954
S':'
asbag57
(g78
g59
NtRp3955
(dp3956
g62
(dp3957
sg71
g3942
sg64
(lp3958
g57
(g58
g59
NtRp3959
(dp3960
g62
(dp3961
g70
I3
ssg71
g3955
sg64
(lp3962
g100
asbasbasbag57
(g73
g59
NtRp3963
(dp3964
g62
(dp3965
sg71
g3004
sg64
(lp3966
g57
(g78
g59
NtRp3967
(dp3968
g62
(dp3969
g82
g83
ssg71
g3963
sg64
(lp3970
S'wsgi.run_once'
p3971
asbag57
(g78
g59
NtRp3972
(dp3973
g62
(dp3974
g89
g90
ssg71
g3963
sg64
(lp3975
S':'
asbag57
(g78
g59
NtRp3976
(dp3977
g62
(dp3978
sg71
g3963
sg64
(lp3979
g57
(g58
g59
NtRp3980
(dp3981
g62
(dp3982
g70
I3
ssg71
g3976
sg64
(lp3983
g100
asbasbasbag57
(g73
g59
NtRp3984
(dp3985
g62
(dp3986
sg71
g3004
sg64
(lp3987
g57
(g78
g59
NtRp3988
(dp3989
g62
(dp3990
g82
g83
ssg71
g3984
sg64
(lp3991
S'wsgi.url_scheme'
p3992
asbag57
(g78
g59
NtRp3993
(dp3994
g62
(dp3995
g89
g90
ssg71
g3984
sg64
(lp3996
S':'
asbag57
(g78
g59
NtRp3997
(dp3998
g62
(dp3999
sg71
g3984
sg64
(lp4000
g57
(g58
g59
NtRp4001
(dp4002
g62
(dp4003
g70
I3
ssg71
g3997
sg64
(lp4004
g2321
asbasbasbag57
(g73
g59
NtRp4005
(dp4006
g62
(dp4007
sg71
g3004
sg64
(lp4008
g57
(g78
g59
NtRp4009
(dp4010
g62
(dp4011
g82
g83
ssg71
g4005
sg64
(lp4012
S'wsgi.version'
p4013
asbag57
(g78
g59
NtRp4014
(dp4015
g62
(dp4016
g89
g90
ssg71
g4005
sg64
(lp4017
S':'
asbag57
(g78
g59
NtRp4018
(dp4019
g62
(dp4020
sg71
g4005
sg64
(lp4021
g57
(g58
g59
NtRp4022
(dp4023
g62
(dp4024
g70
I3
ssg71
g4018
sg64
(lp4025
S'1'
asbasbasbasbasbasbasbasbasbasbasbasbasbsS'frames'
p4026
(lp4027
(dp4028
S'file'
p4029
S'/Users/joselara/www/web2py/gluon/restricted.py'
p4030
sS'dump'
p4031
(dp4032
S'environment'
p4033
S"{'A': <class 'gluon.html.A'>, 'B': <class 'gluon.html.B'>, 'BEAUTIFY': <class 'gluon.html.BEAUTIFY'>, 'BODY': <class 'gluon.html.BODY'>, 'BR': <class 'gluon.html.BR'>, 'BUTTON': <class 'gluon.html.BUTTON'>, 'CAT': <class 'gluon.html.CAT'>, 'CENTER': <class 'gluon.html.CENTER'>, 'CLEANUP': <class 'gluon.validators.CLEANUP'>, 'CODE': <class 'gluon.html.CODE'>, ...}"
p4034
sS'ccode'
p4035
S'<code object <module> at 0x10d47b6b0, file "/Use...ns/randomwords/views/default/index.html", line 1>'
p4036
ssS'lnum'
p4037
I209
sS'lines'
p4038
(dp4039
I204
S'    try:'
p4040
sI205
S'        if type(code) == types.CodeType:'
p4041
sI206
S'            ccode = code'
p4042
sI207
S'        else:'
p4043
sI208
S'            ccode = compile2(code,layer)'
p4044
sI209
S'        exec ccode in environment'
p4045
sI210
S'    except HTTP:'
p4046
sI211
S'        raise'
p4047
sI212
S'    except RestrictedError:'
p4048
sI213
S'        # do not encapsulate (obfuscate) the original RestrictedError'
p4049
ssS'call'
p4050
S'(code=r"response.write(\'<!DOCTYPE html>\\n<!-- paulirish....ponse.write(\'\\n</body>\\n</html>\\n\', escape=False)", environment={\'A\': <class \'gluon.html.A\'>, \'B\': <class \'gluon.html.B\'>, \'BEAUTIFY\': <class \'gluon.html.BEAUTIFY\'>, \'BODY\': <class \'gluon.html.BODY\'>, \'BR\': <class \'gluon.html.BR\'>, \'BUTTON\': <class \'gluon.html.BUTTON\'>, \'CAT\': <class \'gluon.html.CAT\'>, \'CENTER\': <class \'gluon.html.CENTER\'>, \'CLEANUP\': <class \'gluon.validators.CLEANUP\'>, \'CODE\': <class \'gluon.html.CODE\'>, ...}, layer=\'/Users/joselara/www/web2py/applications/randomwords/views/default/index.html\')'
p4051
sS'func'
p4052
S'restricted'
p4053
sa(dp4054
g4029
S'/Users/joselara/www/web2py/applications/randomwords/views/default/index.html'
p4055
sg4031
(dp4056
sg4037
I59
sg4038
(dp4057
I64
S'response.write(\'\\n        </div>\\n        \\n      </div><!-- container -->\\n    </div><!-- main -->\\n    \\n  \\n  <!--[if lt IE 7 ]>\\n\\t<script src="\', escape=False)'
p4058
sI65
S"response.write(URL('static','js/dd_belatedpng.js'))"
p4059
sI66
S'response.write(\'"></script>\\n\\t<script> DD_belatedPNG.fix(\\\'img, .png_bg\\\'); //fix any <img> or .png_bg background-images </script>\\n\\t<![endif]-->\\n  \', escape=False)'
p4060
sI67
S'if response.google_analytics_id:'
p4061
sI68
S'    response.write(\'<script type="text/javascript"> var _gaq = _gaq || []; _gaq.push([\\\'_setAccount\\\', \\\'\', escape=False)'
p4062
sI69
S'    response.write(response.google_analytics_id)'
p4063
sI50
S"response.write('\\n\\n  ', escape=False)"
p4064
sI51
S'# using sidebars need to know what sidebar you want to use'
p4065
sI52
S"left_sidebar_enabled = globals().get('left_sidebar_enabled',False)"
p4066
sI53
S"right_sidebar_enabled = globals().get('right_sidebar_enabled',False)"
p4067
sI54
S"middle_columns = {0:'sixteen',1:'twelve',2:'eight'}["
p4068
sI55
S'(left_sidebar_enabled and 1 or 0)+(right_sidebar_enabled and 1 or 0)]'
p4069
sI56
S'response.write("\\n\\n    <script type=\'text/javascript\'>\\n        window.onload = function() {\\n            RandomWordComplete();\\n        }\\n\\n        function RandomWordComplete() {\\n            ajax(\'", escape=False)'
p4070
sI57
S"response.write(URL('data'))"
p4071
sI58
S'response.write(\'\\\', [\\\'word\\\'],\\\'word\\\');\\n            setTimeout(RandomWordComplete, 4000);\\n        }\\n    </script>\\n\\n  <link rel="stylesheet" href="http://ajax.googleapis.com/ajax/libs/jqueryui/1.8.16/themes/base/jquery-ui.css" type="text/css" media="all" />\\n  <script src="http://ajax.googleapis.com/ajax/libs/jqueryui/1.8.16/jquery-ui.min.js" type="text/javascript"></script>\\n\\n</head>\\n<body>\\n  <div class="wrapper"><!-- for sticky footer -->\\n   \\n    <div class="main" style="margin:auto; width:960px;">\\n        \\n        <div class="empresa">\\n        \', escape=False)'
p4072
sI59
S'empresa'
p4073
sI60
S"response.write('\\n        </div>\\n        \\n        <div>\\n          ', escape=False)"
p4074
sI61
S"response.write('\\n          ', escape=False)"
p4075
sI62
S'response.write(\'\\n<div id="word" class="word"></div>\\n\\n\', escape=False)'
p4076
sI63
S"response.write('\\n          ', escape=False)"
p4077
ssg4050
S'()'
p4078
sg4052
S'<module>'
p4079
sasS'pyver'
p4080
S'Python 2.7.2: /usr/bin/python'
p4081
sS'session'
p4082
g57
(g58
g59
NtRp4083
(dp4084
g62
(dp4085
sg64
(lp4086
g57
(g66
g59
NtRp4087
(dp4088
g62
(dp4089
g70
I5
ssg71
Nsg64
(lp4090
sbasbsS'etype'
p4091
S"<type 'exceptions.NameError'>"
p4092
sS'date'
p4093
S'Wed Oct 24 01:28:46 2012'
p4094
sS'response'
p4095
g57
(g58
g59
NtRp4096
(dp4097
g62
(dp4098
sg64
(lp4099
g57
(g66
g59
NtRp4100
(dp4101
g62
(dp4102
g70
I5
ssg71
Nsg64
(lp4103
g57
(g73
g59
NtRp4104
(dp4105
g62
(dp4106
sg71
g4100
sg64
(lp4107
g57
(g78
g59
NtRp4108
(dp4109
g62
(dp4110
g82
g83
ssg71
g4104
sg64
(lp4111
g155
asbag57
(g78
g59
NtRp4112
(dp4113
g62
(dp4114
g89
g90
ssg71
g4104
sg64
(lp4115
S':'
asbag57
(g78
g59
NtRp4116
(dp4117
g62
(dp4118
sg71
g4104
sg64
(lp4119
g57
(g58
g59
NtRp4120
(dp4121
g62
(dp4122
g70
I5
ssg71
g4116
sg64
(lp4123
S'<cStringIO.StringO object at 0x10d7c2500>'
p4124
asbasbasbag57
(g73
g59
NtRp4125
(dp4126
g62
(dp4127
sg71
g4100
sg64
(lp4128
g57
(g78
g59
NtRp4129
(dp4130
g62
(dp4131
g82
g83
ssg71
g4125
sg64
(lp4132
g243
asbag57
(g78
g59
NtRp4133
(dp4134
g62
(dp4135
g89
g90
ssg71
g4125
sg64
(lp4136
S':'
asbag57
(g78
g59
NtRp4137
(dp4138
g62
(dp4139
sg71
g4125
sg64
(lp4140
g57
(g58
g59
NtRp4141
(dp4142
g62
(dp4143
g70
I5
ssg71
g4137
sg64
(lp4144
g57
(g66
g59
NtRp4145
(dp4146
g62
(dp4147
g70
I4
ssg71
Nsg64
(lp4148
g57
(g73
g59
NtRp4149
(dp4150
g62
(dp4151
sg71
g4145
sg64
(lp4152
g57
(g78
g59
NtRp4153
(dp4154
g62
(dp4155
g82
g83
ssg71
g4149
sg64
(lp4156
S'session_id_randomwords'
p4157
asbag57
(g78
g59
NtRp4158
(dp4159
g62
(dp4160
g89
g90
ssg71
g4149
sg64
(lp4161
S':'
asbag57
(g78
g59
NtRp4162
(dp4163
g62
(dp4164
sg71
g4149
sg64
(lp4165
g57
(g58
g59
NtRp4166
(dp4167
g62
(dp4168
g70
I4
ssg71
g4162
sg64
(lp4169
g661
ag57
(g66
g59
NtRp4170
(dp4171
g62
(dp4172
g70
I3
ssg71
Nsg64
(lp4173
g57
(g73
g59
NtRp4174
(dp4175
g62
(dp4176
sg71
g4170
sg64
(lp4177
g57
(g78
g59
NtRp4178
(dp4179
g62
(dp4180
g82
g83
ssg71
g4174
sg64
(lp4181
g294
asbag57
(g78
g59
NtRp4182
(dp4183
g62
(dp4184
g89
g90
ssg71
g4174
sg64
(lp4185
S':'
asbag57
(g78
g59
NtRp4186
(dp4187
g62
(dp4188
sg71
g4174
sg64
(lp4189
g57
(g58
g59
NtRp4190
(dp4191
g62
(dp4192
g70
I3
ssg71
g4186
sg64
(lp4193
S''
asbasbasbag57
(g73
g59
NtRp4194
(dp4195
g62
(dp4196
sg71
g4170
sg64
(lp4197
g57
(g78
g59
NtRp4198
(dp4199
g62
(dp4200
g82
g83
ssg71
g4194
sg64
(lp4201
g315
asbag57
(g78
g59
NtRp4202
(dp4203
g62
(dp4204
g89
g90
ssg71
g4194
sg64
(lp4205
S':'
asbag57
(g78
g59
NtRp4206
(dp4207
g62
(dp4208
sg71
g4194
sg64
(lp4209
g57
(g58
g59
NtRp4210
(dp4211
g62
(dp4212
g70
I3
ssg71
g4206
sg64
(lp4213
S''
asbasbasbag57
(g73
g59
NtRp4214
(dp4215
g62
(dp4216
sg71
g4170
sg64
(lp4217
g57
(g78
g59
NtRp4218
(dp4219
g62
(dp4220
g82
g83
ssg71
g4214
sg64
(lp4221
g336
asbag57
(g78
g59
NtRp4222
(dp4223
g62
(dp4224
g89
g90
ssg71
g4214
sg64
(lp4225
S':'
asbag57
(g78
g59
NtRp4226
(dp4227
g62
(dp4228
sg71
g4214
sg64
(lp4229
g57
(g58
g59
NtRp4230
(dp4231
g62
(dp4232
g70
I3
ssg71
g4226
sg64
(lp4233
S''
asbasbasbag57
(g73
g59
NtRp4234
(dp4235
g62
(dp4236
sg71
g4170
sg64
(lp4237
g57
(g78
g59
NtRp4238
(dp4239
g62
(dp4240
g82
g83
ssg71
g4234
sg64
(lp4241
g357
asbag57
(g78
g59
NtRp4242
(dp4243
g62
(dp4244
g89
g90
ssg71
g4234
sg64
(lp4245
S':'
asbag57
(g78
g59
NtRp4246
(dp4247
g62
(dp4248
sg71
g4234
sg64
(lp4249
g57
(g58
g59
NtRp4250
(dp4251
g62
(dp4252
g70
I3
ssg71
g4246
sg64
(lp4253
S''
asbasbasbag57
(g73
g59
NtRp4254
(dp4255
g62
(dp4256
sg71
g4170
sg64
(lp4257
g57
(g78
g59
NtRp4258
(dp4259
g62
(dp4260
g82
g83
ssg71
g4254
sg64
(lp4261
g378
asbag57
(g78
g59
NtRp4262
(dp4263
g62
(dp4264
g89
g90
ssg71
g4254
sg64
(lp4265
S':'
asbag57
(g78
g59
NtRp4266
(dp4267
g62
(dp4268
sg71
g4254
sg64
(lp4269
g57
(g58
g59
NtRp4270
(dp4271
g62
(dp4272
g70
I3
ssg71
g4266
sg64
(lp4273
S''
asbasbasbag57
(g73
g59
NtRp4274
(dp4275
g62
(dp4276
sg71
g4170
sg64
(lp4277
g57
(g78
g59
NtRp4278
(dp4279
g62
(dp4280
g82
g83
ssg71
g4274
sg64
(lp4281
g399
asbag57
(g78
g59
NtRp4282
(dp4283
g62
(dp4284
g89
g90
ssg71
g4274
sg64
(lp4285
S':'
asbag57
(g78
g59
NtRp4286
(dp4287
g62
(dp4288
sg71
g4274
sg64
(lp4289
g57
(g58
g59
NtRp4290
(dp4291
g62
(dp4292
g70
I3
ssg71
g4286
sg64
(lp4293
S'/'
asbasbasbag57
(g73
g59
NtRp4294
(dp4295
g62
(dp4296
sg71
g4170
sg64
(lp4297
g57
(g78
g59
NtRp4298
(dp4299
g62
(dp4300
g82
g83
ssg71
g4294
sg64
(lp4301
g420
asbag57
(g78
g59
NtRp4302
(dp4303
g62
(dp4304
g89
g90
ssg71
g4294
sg64
(lp4305
S':'
asbag57
(g78
g59
NtRp4306
(dp4307
g62
(dp4308
sg71
g4294
sg64
(lp4309
g57
(g58
g59
NtRp4310
(dp4311
g62
(dp4312
g70
I3
ssg71
g4306
sg64
(lp4313
S''
asbasbasbag57
(g73
g59
NtRp4314
(dp4315
g62
(dp4316
sg71
g4170
sg64
(lp4317
g57
(g78
g59
NtRp4318
(dp4319
g62
(dp4320
g82
g83
ssg71
g4314
sg64
(lp4321
g441
asbag57
(g78
g59
NtRp4322
(dp4323
g62
(dp4324
g89
g90
ssg71
g4314
sg64
(lp4325
S':'
asbag57
(g78
g59
NtRp4326
(dp4327
g62
(dp4328
sg71
g4314
sg64
(lp4329
g57
(g58
g59
NtRp4330
(dp4331
g62
(dp4332
g70
I3
ssg71
g4326
sg64
(lp4333
S''
asbasbasbasbasbasbasbasbasbasbasbag57
(g73
g59
NtRp4334
(dp4335
g62
(dp4336
sg71
g4100
sg64
(lp4337
g57
(g78
g59
NtRp4338
(dp4339
g62
(dp4340
g82
g83
ssg71
g4334
sg64
(lp4341
S'delimiters'
p4342
asbag57
(g78
g59
NtRp4343
(dp4344
g62
(dp4345
g89
g90
ssg71
g4334
sg64
(lp4346
S':'
asbag57
(g78
g59
NtRp4347
(dp4348
g62
(dp4349
sg71
g4334
sg64
(lp4350
g57
(g58
g59
NtRp4351
(dp4352
g62
(dp4353
g70
I5
ssg71
g4347
sg64
(lp4354
g57
(g66
g59
NtRp4355
(dp4356
g62
(dp4357
g70
I4
ssg71
Nsg64
(lp4358
g57
(g73
g59
NtRp4359
(dp4360
g62
(dp4361
sg71
g4355
sg64
(lp4362
g57
(g78
g59
NtRp4363
(dp4364
g62
(dp4365
sg71
g4359
sg64
(lp4366
g57
(g58
g59
NtRp4367
(dp4368
g62
(dp4369
g70
I4
ssg71
g4363
sg64
(lp4370
S'{{'
p4371
asbasbasbag57
(g73
g59
NtRp4372
(dp4373
g62
(dp4374
sg71
g4355
sg64
(lp4375
g57
(g78
g59
NtRp4376
(dp4377
g62
(dp4378
sg71
g4372
sg64
(lp4379
g57
(g58
g59
NtRp4380
(dp4381
g62
(dp4382
g70
I4
ssg71
g4376
sg64
(lp4383
S'}}'
p4384
asbasbasbasbasbasbasbag57
(g73
g59
NtRp4385
(dp4386
g62
(dp4387
sg71
g4100
sg64
(lp4388
g57
(g78
g59
NtRp4389
(dp4390
g62
(dp4391
g82
g83
ssg71
g4385
sg64
(lp4392
S'files'
p4393
asbag57
(g78
g59
NtRp4394
(dp4395
g62
(dp4396
g89
g90
ssg71
g4385
sg64
(lp4397
S':'
asbag57
(g78
g59
NtRp4398
(dp4399
g62
(dp4400
sg71
g4385
sg64
(lp4401
g57
(g58
g59
NtRp4402
(dp4403
g62
(dp4404
g70
I5
ssg71
g4398
sg64
(lp4405
g57
(g66
g59
NtRp4406
(dp4407
g62
(dp4408
g70
I4
ssg71
Nsg64
(lp4409
g57
(g73
g59
NtRp4410
(dp4411
g62
(dp4412
sg71
g4406
sg64
(lp4413
g57
(g78
g59
NtRp4414
(dp4415
g62
(dp4416
sg71
g4410
sg64
(lp4417
g57
(g58
g59
NtRp4418
(dp4419
g62
(dp4420
g70
I4
ssg71
g4414
sg64
(lp4421
S'/randomwords/static/js/jquery.js'
p4422
asbasbasbag57
(g73
g59
NtRp4423
(dp4424
g62
(dp4425
sg71
g4406
sg64
(lp4426
g57
(g78
g59
NtRp4427
(dp4428
g62
(dp4429
sg71
g4423
sg64
(lp4430
g57
(g58
g59
NtRp4431
(dp4432
g62
(dp4433
g70
I4
ssg71
g4427
sg64
(lp4434
S'/randomwords/static/css/calendar.css'
p4435
asbasbasbag57
(g73
g59
NtRp4436
(dp4437
g62
(dp4438
sg71
g4406
sg64
(lp4439
g57
(g78
g59
NtRp4440
(dp4441
g62
(dp4442
sg71
g4436
sg64
(lp4443
g57
(g58
g59
NtRp4444
(dp4445
g62
(dp4446
g70
I4
ssg71
g4440
sg64
(lp4447
S'/randomwords/static/js/calendar.js'
p4448
asbasbasbag57
(g73
g59
NtRp4449
(dp4450
g62
(dp4451
sg71
g4406
sg64
(lp4452
g57
(g78
g59
NtRp4453
(dp4454
g62
(dp4455
sg71
g4449
sg64
(lp4456
g57
(g58
g59
NtRp4457
(dp4458
g62
(dp4459
g70
I4
ssg71
g4453
sg64
(lp4460
S'/randomwords/static/js/web2py.js'
p4461
asbasbasbag57
(g73
g59
NtRp4462
(dp4463
g62
(dp4464
sg71
g4406
sg64
(lp4465
g57
(g78
g59
NtRp4466
(dp4467
g62
(dp4468
sg71
g4462
sg64
(lp4469
g57
(g58
g59
NtRp4470
(dp4471
g62
(dp4472
g70
I4
ssg71
g4466
sg64
(lp4473
S'/randomwords/static/css/style.css'
p4474
asbasbasbag57
(g73
g59
NtRp4475
(dp4476
g62
(dp4477
sg71
g4406
sg64
(lp4478
g57
(g78
g59
NtRp4479
(dp4480
g62
(dp4481
sg71
g4475
sg64
(lp4482
g57
(g58
g59
NtRp4483
(dp4484
g62
(dp4485
g70
I4
ssg71
g4479
sg64
(lp4486
S'/randomwords/static/css/skeleton.css'
p4487
asbasbasbag57
(g73
g59
NtRp4488
(dp4489
g62
(dp4490
sg71
g4406
sg64
(lp4491
g57
(g78
g59
NtRp4492
(dp4493
g62
(dp4494
sg71
g4488
sg64
(lp4495
g57
(g58
g59
NtRp4496
(dp4497
g62
(dp4498
g70
I4
ssg71
g4492
sg64
(lp4499
S'/randomwords/static/css/web2py.css'
p4500
asbasbasbasbasbasbasbag57
(g73
g59
NtRp4501
(dp4502
g62
(dp4503
sg71
g4100
sg64
(lp4504
g57
(g78
g59
NtRp4505
(dp4506
g62
(dp4507
g82
g83
ssg71
g4501
sg64
(lp4508
S'flash'
p4509
asbag57
(g78
g59
NtRp4510
(dp4511
g62
(dp4512
g89
g90
ssg71
g4501
sg64
(lp4513
S':'
asbag57
(g78
g59
NtRp4514
(dp4515
g62
(dp4516
sg71
g4501
sg64
(lp4517
g57
(g58
g59
NtRp4518
(dp4519
g62
(dp4520
g70
I5
ssg71
g4514
sg64
(lp4521
S''
asbasbasbag57
(g73
g59
NtRp4522
(dp4523
g62
(dp4524
sg71
g4100
sg64
(lp4525
g57
(g78
g59
NtRp4526
(dp4527
g62
(dp4528
g82
g83
ssg71
g4522
sg64
(lp4529
S'generic_patterns'
p4530
asbag57
(g78
g59
NtRp4531
(dp4532
g62
(dp4533
g89
g90
ssg71
g4522
sg64
(lp4534
S':'
asbag57
(g78
g59
NtRp4535
(dp4536
g62
(dp4537
sg71
g4522
sg64
(lp4538
g57
(g58
g59
NtRp4539
(dp4540
g62
(dp4541
g70
I5
ssg71
g4535
sg64
(lp4542
g57
(g66
g59
NtRp4543
(dp4544
g62
(dp4545
g70
I4
ssg71
Nsg64
(lp4546
sbasbasbasbag57
(g73
g59
NtRp4547
(dp4548
g62
(dp4549
sg71
g4100
sg64
(lp4550
g57
(g78
g59
NtRp4551
(dp4552
g62
(dp4553
g82
g83
ssg71
g4547
sg64
(lp4554
S'headers'
p4555
asbag57
(g78
g59
NtRp4556
(dp4557
g62
(dp4558
g89
g90
ssg71
g4547
sg64
(lp4559
S':'
asbag57
(g78
g59
NtRp4560
(dp4561
g62
(dp4562
sg71
g4547
sg64
(lp4563
g57
(g58
g59
NtRp4564
(dp4565
g62
(dp4566
g70
I5
ssg71
g4560
sg64
(lp4567
g57
(g66
g59
NtRp4568
(dp4569
g62
(dp4570
g70
I4
ssg71
Nsg64
(lp4571
g57
(g73
g59
NtRp4572
(dp4573
g62
(dp4574
sg71
g4568
sg64
(lp4575
g57
(g78
g59
NtRp4576
(dp4577
g62
(dp4578
g82
g83
ssg71
g4572
sg64
(lp4579
S'X-Powered-By'
p4580
asbag57
(g78
g59
NtRp4581
(dp4582
g62
(dp4583
g89
g90
ssg71
g4572
sg64
(lp4584
S':'
asbag57
(g78
g59
NtRp4585
(dp4586
g62
(dp4587
sg71
g4572
sg64
(lp4588
g57
(g58
g59
NtRp4589
(dp4590
g62
(dp4591
g70
I4
ssg71
g4585
sg64
(lp4592
S'web2py'
p4593
asbasbasbasbasbasbasbag57
(g73
g59
NtRp4594
(dp4595
g62
(dp4596
sg71
g4100
sg64
(lp4597
g57
(g78
g59
NtRp4598
(dp4599
g62
(dp4600
g82
g83
ssg71
g4594
sg64
(lp4601
S'menu'
p4602
asbag57
(g78
g59
NtRp4603
(dp4604
g62
(dp4605
g89
g90
ssg71
g4594
sg64
(lp4606
S':'
asbag57
(g78
g59
NtRp4607
(dp4608
g62
(dp4609
sg71
g4594
sg64
(lp4610
g57
(g58
g59
NtRp4611
(dp4612
g62
(dp4613
g70
I5
ssg71
g4607
sg64
(lp4614
g57
(g66
g59
NtRp4615
(dp4616
g62
(dp4617
g70
I4
ssg71
Nsg64
(lp4618
sbasbasbasbag57
(g73
g59
NtRp4619
(dp4620
g62
(dp4621
sg71
g4100
sg64
(lp4622
g57
(g78
g59
NtRp4623
(dp4624
g62
(dp4625
g82
g83
ssg71
g4619
sg64
(lp4626
S'meta'
p4627
asbag57
(g78
g59
NtRp4628
(dp4629
g62
(dp4630
g89
g90
ssg71
g4619
sg64
(lp4631
S':'
asbag57
(g78
g59
NtRp4632
(dp4633
g62
(dp4634
sg71
g4619
sg64
(lp4635
g57
(g58
g59
NtRp4636
(dp4637
g62
(dp4638
g70
I5
ssg71
g4632
sg64
(lp4639
g57
(g66
g59
NtRp4640
(dp4641
g62
(dp4642
g70
I4
ssg71
Nsg64
(lp4643
sbasbasbasbag57
(g73
g59
NtRp4644
(dp4645
g62
(dp4646
sg71
g4100
sg64
(lp4647
g57
(g78
g59
NtRp4648
(dp4649
g62
(dp4650
g82
g83
ssg71
g4644
sg64
(lp4651
S'models_to_run'
p4652
asbag57
(g78
g59
NtRp4653
(dp4654
g62
(dp4655
g89
g90
ssg71
g4644
sg64
(lp4656
S':'
asbag57
(g78
g59
NtRp4657
(dp4658
g62
(dp4659
sg71
g4644
sg64
(lp4660
g57
(g58
g59
NtRp4661
(dp4662
g62
(dp4663
g70
I5
ssg71
g4657
sg64
(lp4664
g57
(g66
g59
NtRp4665
(dp4666
g62
(dp4667
g70
I4
ssg71
Nsg64
(lp4668
g57
(g73
g59
NtRp4669
(dp4670
g62
(dp4671
sg71
g4665
sg64
(lp4672
g57
(g78
g59
NtRp4673
(dp4674
g62
(dp4675
sg71
g4669
sg64
(lp4676
g57
(g58
g59
NtRp4677
(dp4678
g62
(dp4679
g70
I4
ssg71
g4673
sg64
(lp4680
S'^\\w+\\.py$'
p4681
asbasbasbag57
(g73
g59
NtRp4682
(dp4683
g62
(dp4684
sg71
g4665
sg64
(lp4685
g57
(g78
g59
NtRp4686
(dp4687
g62
(dp4688
sg71
g4682
sg64
(lp4689
g57
(g58
g59
NtRp4690
(dp4691
g62
(dp4692
g70
I4
ssg71
g4686
sg64
(lp4693
S'^default/\\w+\\.py$'
p4694
asbasbasbag57
(g73
g59
NtRp4695
(dp4696
g62
(dp4697
sg71
g4665
sg64
(lp4698
g57
(g78
g59
NtRp4699
(dp4700
g62
(dp4701
sg71
g4695
sg64
(lp4702
g57
(g58
g59
NtRp4703
(dp4704
g62
(dp4705
g70
I4
ssg71
g4699
sg64
(lp4706
S'^default/index/\\w+\\.py$'
p4707
asbasbasbasbasbasbasbag57
(g73
g59
NtRp4708
(dp4709
g62
(dp4710
sg71
g4100
sg64
(lp4711
g57
(g78
g59
NtRp4712
(dp4713
g62
(dp4714
g82
g83
ssg71
g4708
sg64
(lp4715
S'postprocessing'
p4716
asbag57
(g78
g59
NtRp4717
(dp4718
g62
(dp4719
g89
g90
ssg71
g4708
sg64
(lp4720
S':'
asbag57
(g78
g59
NtRp4721
(dp4722
g62
(dp4723
sg71
g4708
sg64
(lp4724
g57
(g58
g59
NtRp4725
(dp4726
g62
(dp4727
g70
I5
ssg71
g4721
sg64
(lp4728
g57
(g66
g59
NtRp4729
(dp4730
g62
(dp4731
g70
I4
ssg71
Nsg64
(lp4732
sbasbasbasbag57
(g73
g59
NtRp4733
(dp4734
g62
(dp4735
sg71
g4100
sg64
(lp4736
g57
(g78
g59
NtRp4737
(dp4738
g62
(dp4739
g82
g83
ssg71
g4733
sg64
(lp4740
S'session_file'
p4741
asbag57
(g78
g59
NtRp4742
(dp4743
g62
(dp4744
g89
g90
ssg71
g4733
sg64
(lp4745
S':'
asbag57
(g78
g59
NtRp4746
(dp4747
g62
(dp4748
sg71
g4733
sg64
(lp4749
g57
(g58
g59
NtRp4750
(dp4751
g62
(dp4752
g70
I5
ssg71
g4746
sg64
(lp4753
S"<open file '/Users/joselara/www/web2py/applications/randomwords/sessions/127.0.0.1-0bd8aba9-4c26-4c3e-ba38-4feb8157de7a', mode 'rb+' at 0x10d463270>"
p4754
asbasbasbag57
(g73
g59
NtRp4755
(dp4756
g62
(dp4757
sg71
g4100
sg64
(lp4758
g57
(g78
g59
NtRp4759
(dp4760
g62
(dp4761
g82
g83
ssg71
g4755
sg64
(lp4762
S'session_filename'
p4763
asbag57
(g78
g59
NtRp4764
(dp4765
g62
(dp4766
g89
g90
ssg71
g4755
sg64
(lp4767
S':'
asbag57
(g78
g59
NtRp4768
(dp4769
g62
(dp4770
sg71
g4755
sg64
(lp4771
g57
(g58
g59
NtRp4772
(dp4773
g62
(dp4774
g70
I5
ssg71
g4768
sg64
(lp4775
S'/Users/joselara/www/web2py/applications/randomwords/sessions/127.0.0.1-0bd8aba9-4c26-4c3e-ba38-4feb8157de7a'
p4776
asbasbasbag57
(g73
g59
NtRp4777
(dp4778
g62
(dp4779
sg71
g4100
sg64
(lp4780
g57
(g78
g59
NtRp4781
(dp4782
g62
(dp4783
g82
g83
ssg71
g4777
sg64
(lp4784
S'session_id'
p4785
asbag57
(g78
g59
NtRp4786
(dp4787
g62
(dp4788
g89
g90
ssg71
g4777
sg64
(lp4789
S':'
asbag57
(g78
g59
NtRp4790
(dp4791
g62
(dp4792
sg71
g4777
sg64
(lp4793
g57
(g58
g59
NtRp4794
(dp4795
g62
(dp4796
g70
I5
ssg71
g4790
sg64
(lp4797
g661
asbasbasbag57
(g73
g59
NtRp4798
(dp4799
g62
(dp4800
sg71
g4100
sg64
(lp4801
g57
(g78
g59
NtRp4802
(dp4803
g62
(dp4804
g82
g83
ssg71
g4798
sg64
(lp4805
S'session_id_name'
p4806
asbag57
(g78
g59
NtRp4807
(dp4808
g62
(dp4809
g89
g90
ssg71
g4798
sg64
(lp4810
S':'
asbag57
(g78
g59
NtRp4811
(dp4812
g62
(dp4813
sg71
g4798
sg64
(lp4814
g57
(g58
g59
NtRp4815
(dp4816
g62
(dp4817
g70
I5
ssg71
g4811
sg64
(lp4818
g4157
asbasbasbag57
(g73
g59
NtRp4819
(dp4820
g62
(dp4821
sg71
g4100
sg64
(lp4822
g57
(g78
g59
NtRp4823
(dp4824
g62
(dp4825
g82
g83
ssg71
g4819
sg64
(lp4826
S'session_locked'
p4827
asbag57
(g78
g59
NtRp4828
(dp4829
g62
(dp4830
g89
g90
ssg71
g4819
sg64
(lp4831
S':'
asbag57
(g78
g59
NtRp4832
(dp4833
g62
(dp4834
sg71
g4819
sg64
(lp4835
g57
(g58
g59
NtRp4836
(dp4837
g62
(dp4838
g70
I5
ssg71
g4832
sg64
(lp4839
g2257
asbasbasbag57
(g73
g59
NtRp4840
(dp4841
g62
(dp4842
sg71
g4100
sg64
(lp4843
g57
(g78
g59
NtRp4844
(dp4845
g62
(dp4846
g82
g83
ssg71
g4840
sg64
(lp4847
S'session_new'
p4848
asbag57
(g78
g59
NtRp4849
(dp4850
g62
(dp4851
g89
g90
ssg71
g4840
sg64
(lp4852
S':'
asbag57
(g78
g59
NtRp4853
(dp4854
g62
(dp4855
sg71
g4840
sg64
(lp4856
g57
(g58
g59
NtRp4857
(dp4858
g62
(dp4859
g70
I5
ssg71
g4853
sg64
(lp4860
g100
asbasbasbag57
(g73
g59
NtRp4861
(dp4862
g62
(dp4863
sg71
g4100
sg64
(lp4864
g57
(g78
g59
NtRp4865
(dp4866
g62
(dp4867
g82
g83
ssg71
g4861
sg64
(lp4868
S'status'
p4869
asbag57
(g78
g59
NtRp4870
(dp4871
g62
(dp4872
g89
g90
ssg71
g4861
sg64
(lp4873
S':'
asbag57
(g78
g59
NtRp4874
(dp4875
g62
(dp4876
sg71
g4861
sg64
(lp4877
g57
(g58
g59
NtRp4878
(dp4879
g62
(dp4880
g70
I5
ssg71
g4874
sg64
(lp4881
S'200'
p4882
asbasbasbag57
(g73
g59
NtRp4883
(dp4884
g62
(dp4885
sg71
g4100
sg64
(lp4886
g57
(g78
g59
NtRp4887
(dp4888
g62
(dp4889
g82
g83
ssg71
g4883
sg64
(lp4890
S'view'
p4891
asbag57
(g78
g59
NtRp4892
(dp4893
g62
(dp4894
g89
g90
ssg71
g4883
sg64
(lp4895
S':'
asbag57
(g78
g59
NtRp4896
(dp4897
g62
(dp4898
sg71
g4883
sg64
(lp4899
g57
(g58
g59
NtRp4900
(dp4901
g62
(dp4902
g70
I5
ssg71
g4896
sg64
(lp4903
S'default/index.html'
p4904
asbasbasbasbasbsS'locals'
p4905
(dp4906
S'OBJECT'
p4907
S"<class 'gluon.html.OBJECT'>"
p4908
sS'SQLDB'
p4909
S"<class 'gluon.dal.DAL'>"
p4910
sg4082
S"<Storage {'_Session__hash': 'gPH?xhv\\xb1s)\\xc9\\x... {'version': '22.0.1229.94', 'name': 'Chrome'}}}>"
p4911
sS'LINK'
p4912
S"<class 'gluon.html.LINK'>"
p4913
sS'BR'
p4914
S"<class 'gluon.html.BR'>"
p4915
sS'local_import'
p4916
S'<function <lambda>>'
p4917
sS'OPTGROUP'
p4918
S"<class 'gluon.html.OPTGROUP'>"
p4919
sS'PRE'
p4920
S"<class 'gluon.html.PRE'>"
p4921
sS'IS_INT_IN_RANGE'
p4922
S"<class 'gluon.validators.IS_INT_IN_RANGE'>"
p4923
sS'left_sidebar_enabled'
p4924
g100
sS'IS_LOWER'
p4925
S"<class 'gluon.validators.IS_LOWER'>"
p4926
sS'IS_STRONG'
p4927
S"<class 'gluon.validators.IS_STRONG'>"
p4928
sS'cache'
p4929
S'<gluon.cache.Cache object>'
p4930
sS'IS_IN_DB'
p4931
S"<class 'gluon.validators.IS_IN_DB'>"
p4932
sS'TAG'
p4933
S'<gluon.html.__TAG__ object>'
p4934
sS'SQLField'
p4935
S"<class 'gluon.dal.Field'>"
p4936
sS'BODY'
p4937
S"<class 'gluon.html.BODY'>"
p4938
sS'IS_DATE_IN_RANGE'
p4939
S"<class 'gluon.validators.IS_DATE_IN_RANGE'>"
p4940
sS'TH'
p4941
S"<class 'gluon.html.TH'>"
p4942
sS'URL'
p4943
S'<function URL>'
p4944
sS'__file__'
p4945
S"'/Users/joselara/www/web2py/applications/randomwords/views/default/index.html'"
p4946
sS'db'
p4947
S'<DAL sqlite://words.db>'
p4948
sS'P'
S"<class 'gluon.html.P'>"
p4949
sS'TFOOT'
p4950
S"<class 'gluon.html.TFOOT'>"
p4951
sS'XHTML'
p4952
S"<class 'gluon.html.XHTML'>"
p4953
sS'ON'
p4954
g2257
sS'OL'
p4955
S"<class 'gluon.html.OL'>"
p4956
sS'TEXTAREA'
p4957
S"<class 'gluon.html.TEXTAREA'>"
p4958
sS'MENU'
p4959
S"<class 'gluon.html.MENU'>"
p4960
sS'LOAD'
p4961
S'<function LOAD>'
p4962
sS'CODE'
p4963
S"<class 'gluon.html.CODE'>"
p4964
sS'HTTP'
p4965
S"<class 'gluon.http.HTTP'>"
p4966
sS'HR'
p4967
S"<class 'gluon.html.HR'>"
p4968
sS'IS_DATETIME'
p4969
S"<class 'gluon.validators.IS_DATETIME'>"
p4970
sS'HEAD'
p4971
S"<class 'gluon.html.HEAD'>"
p4972
sS'LABEL'
p4973
S"<class 'gluon.html.LABEL'>"
p4974
sS'CLEANUP'
p4975
S"<class 'gluon.validators.CLEANUP'>"
p4976
sS'SELECT'
p4977
S"<class 'gluon.html.SELECT'>"
p4978
sS'CENTER'
p4979
S"<class 'gluon.html.CENTER'>"
p4980
sS'__builtins__'
p4981
S"{'ArithmeticError': <type 'exceptions.ArithmeticError'>, 'AssertionError': <type 'exceptions.AssertionError'>, 'AttributeError': <type 'exceptions.AttributeError'>, 'BaseException': <type 'exceptions.BaseException'>, 'BufferError': <type 'exceptions.BufferError'>, 'BytesWarning': <type 'exceptions.BytesWarning'>, 'DeprecationWarning': <type 'exceptions.DeprecationWarning'>, 'EOFError': <type 'exceptions.EOFError'>, 'Ellipsis': Ellipsis, 'EnvironmentError': <type 'exceptions.EnvironmentError'>, ...}"
p4982
sS'HTML'
p4983
S"<class 'gluon.html.HTML'>"
p4984
sS'SQLFORM'
p4985
S"<class 'gluon.sqlhtml.SQLFORM'>"
p4986
sS'EM'
p4987
S"<class 'gluon.html.EM'>"
p4988
sS'redirect'
p4989
S'<function redirect>'
p4990
sS'FIELDSET'
p4991
S"<class 'gluon.html.FIELDSET'>"
p4992
sS'IS_EQUAL_TO'
p4993
S"<class 'gluon.validators.IS_EQUAL_TO'>"
p4994
sS'embed64'
p4995
S'<function embed64>'
p4996
sS'IS_LIST_OF'
p4997
S"<class 'gluon.validators.IS_LIST_OF'>"
p4998
sS'__name__'
p4999
S"'__restricted__'"
p5000
sS'EMBED'
p5001
S"<class 'gluon.html.EMBED'>"
p5002
sS'FORM'
p5003
S"<class 'gluon.html.FORM'>"
p5004
sS'H2'
p5005
S"<class 'gluon.html.H2'>"
p5006
sS'H3'
p5007
S"<class 'gluon.html.H3'>"
p5008
sS'BUTTON'
p5009
S"<class 'gluon.html.BUTTON'>"
p5010
sS'H1'
p5011
S"<class 'gluon.html.H1'>"
p5012
sS'H6'
p5013
S"<class 'gluon.html.H6'>"
p5014
sS'H4'
p5015
S"<class 'gluon.html.H4'>"
p5016
sS'H5'
p5017
S"<class 'gluon.html.H5'>"
p5018
sS'UL'
p5019
S"<class 'gluon.html.UL'>"
p5020
sS'IS_UPPER'
p5021
S"<class 'gluon.validators.IS_UPPER'>"
p5022
sS'xmlescape'
p5023
S'<function xmlescape>'
p5024
sS'IS_TIME'
p5025
S"<class 'gluon.validators.IS_TIME'>"
p5026
sS'OPTION'
p5027
S"<class 'gluon.html.OPTION'>"
p5028
sS'TITLE'
p5029
S"<class 'gluon.html.TITLE'>"
p5030
sS'CRYPT'
p5031
S"<class 'gluon.validators.CRYPT'>"
p5032
sS'IS_EMPTY_OR'
p5033
S"<class 'gluon.validators.IS_EMPTY_OR'>"
p5034
sS'MARKMIN'
p5035
S"<class 'gluon.html.MARKMIN'>"
p5036
sS'INPUT'
p5037
S"<class 'gluon.html.INPUT'>"
p5038
sS'STRONG'
p5039
S"<class 'gluon.html.STRONG'>"
p5040
sS'COL'
p5041
S"<class 'gluon.html.COL'>"
p5042
sS'SCRIPT'
p5043
S"<class 'gluon.html.SCRIPT'>"
p5044
sS'TABLE'
p5045
S"<class 'gluon.html.TABLE'>"
p5046
sS'IS_IPV4'
p5047
S"<class 'gluon.validators.IS_IPV4'>"
p5048
sS'IS_LENGTH'
p5049
S"<class 'gluon.validators.IS_LENGTH'>"
p5050
sS'XML'
p5051
S"<class 'gluon.html.XML'>"
p5052
sS'B'
S"<class 'gluon.html.B'>"
p5053
sS'IMG'
p5054
S"<class 'gluon.html.IMG'>"
p5055
sS'SQLTABLE'
p5056
S"<class 'gluon.sqlhtml.SQLTABLE'>"
p5057
sS'IS_MATCH'
p5058
S"<class 'gluon.validators.IS_MATCH'>"
p5059
sS'IS_ALPHANUMERIC'
p5060
S"<class 'gluon.validators.IS_ALPHANUMERIC'>"
p5061
sS'SPAN'
p5062
S"<class 'gluon.html.SPAN'>"
p5063
sS'IS_SLUG'
p5064
S"<class 'gluon.validators.IS_SLUG'>"
p5065
sS'BEAUTIFY'
p5066
S"<class 'gluon.html.BEAUTIFY'>"
p5067
sS'META'
p5068
S"<class 'gluon.html.META'>"
p5069
sS'IS_DATE'
p5070
S"<class 'gluon.validators.IS_DATE'>"
p5071
sS'IS_EMAIL'
p5072
S"<class 'gluon.validators.IS_EMAIL'>"
p5073
sS'IS_NOT_EMPTY'
p5074
S"<class 'gluon.validators.IS_NOT_EMPTY'>"
p5075
sg56
S"<Storage {'function': 'index', 'body': <cStringI...ations/randomwords/', 'post_vars': <Storage {}>}>"
p5076
sS'TBODY'
p5077
S"<class 'gluon.html.TBODY'>"
p5078
sS'CAT'
p5079
S"<class 'gluon.html.CAT'>"
p5080
sS'Field'
p5081
S"<class 'gluon.dal.Field'>"
p5082
sS'middle_columns'
p5083
S"'sixteen'"
p5084
sS'DIV'
p5085
S"<class 'gluon.html.DIV'>"
p5086
sS'LEGEND'
p5087
S"<class 'gluon.html.LEGEND'>"
p5088
sS'COLGROUP'
p5089
S"<class 'gluon.html.COLGROUP'>"
p5090
sS'DAL'
p5091
S"<class 'gluon.dal.DAL'>"
p5092
sS'TT'
p5093
S"<class 'gluon.html.TT'>"
p5094
sS'TR'
p5095
S"<class 'gluon.html.TR'>"
p5096
sS'LI'
p5097
S"<class 'gluon.html.LI'>"
p5098
sS'right_sidebar_enabled'
p5099
g100
sS'IFRAME'
p5100
S"<class 'gluon.html.IFRAME'>"
p5101
sS'TD'
p5102
S"<class 'gluon.html.TD'>"
p5103
sS'IS_URL'
p5104
S"<class 'gluon.validators.IS_URL'>"
p5105
sS'A'
S"<class 'gluon.html.A'>"
p5106
sS'STYLE'
p5107
S"<class 'gluon.html.STYLE'>"
p5108
sS'IS_DATETIME_IN_RANGE'
p5109
S"<class 'gluon.validators.IS_DATETIME_IN_RANGE'>"
p5110
sS'IS_IMAGE'
p5111
S"<class 'gluon.validators.IS_IMAGE'>"
p5112
sS'I'
S"<class 'gluon.html.I'>"
p5113
sS'IS_NOT_IN_DB'
p5114
S"<class 'gluon.validators.IS_NOT_IN_DB'>"
p5115
sg4095
S"<Storage {'body': <cStringIO.StringO object at 0...> at 0x10d1431b8>, 'view': 'default/index.html'}>"
p5116
sS'THEAD'
p5117
S"<class 'gluon.html.THEAD'>"
p5118
sS'IS_NULL_OR'
p5119
S"<class 'gluon.validators.IS_EMPTY_OR'>"
p5120
sS'IS_FLOAT_IN_RANGE'
p5121
S"<class 'gluon.validators.IS_FLOAT_IN_RANGE'>"
p5122
sS'IS_EXPR'
p5123
S"<class 'gluon.validators.IS_EXPR'>"
p5124
sS'T'
S'<gluon.languages.translator object>'
p5125
sS'IS_IN_SET'
p5126
S"<class 'gluon.validators.IS_IN_SET'>"
p5127
sS'IS_UPLOAD_FILENAME'
p5128
S"<class 'gluon.validators.IS_UPLOAD_FILENAME'>"
p5129
sS'IS_DECIMAL_IN_RANGE'
p5130
S"<class 'gluon.validators.IS_DECIMAL_IN_RANGE'>"
p5131
sssS'traceback'
p5132
S'Traceback (most recent call last):\n  File "/Users/joselara/www/web2py/gluon/restricted.py", line 209, in restricted\n    exec ccode in environment\n  File "/Users/joselara/www/web2py/applications/randomwords/views/default/index.html", line 59, in <module>\nNameError: name \'empresa\' is not defined\n'
p5133
s.