(dp1
S'output'
p2
S"<type 'exceptions.IndentationError'> unindent does not match any outer indentation level (default.py, line 17)"
p3
sS'layer'
p4
S'/Users/joselara/www/web2py/applications/randomwords/controllers/default.py'
p5
sS'code'
p6
S'# -*- coding: utf-8 -*-\n# this file is released under public domain and you can use without limitations\n\n#########################################################################\n## This is a samples controller\n## - index is the default action of any application\n## - user is required for authentication and authorization\n## - download is for downloading files uploaded in the db (does streaming)\n## - call exposes all registered services (none by default)\n#########################################################################\n\ndef index():\n    return dict()\n\ndef data():\n\tempresa = "beardcode"\n    word_id = db.word.id\n    word_word = db.word.word\n    id = db().select(word_id, orderby=\'<random>\', limitby=(0,1))\n    id = id[0].id\n    word = db(word_id == id).select(word_word)\n    word = word[0].word\n    return TABLE(*[TR(word)]).xml()\n\n\n\nresponse._vars=response._caller(data)\n'
p7
sS'snapshot'
p8
(dp9
S'exception'
p10
(dp11
S'__getslice__'
p12
S"<method-wrapper '__getslice__' of exceptions.IndentationError object>"
p13
sS'text'
p14
S"'    word_id = db.word.id\\n'"
p15
sS'__str__'
p16
S"<method-wrapper '__str__' of exceptions.IndentationError object>"
p17
sS'__reduce__'
p18
S'<built-in method __reduce__ of exceptions.IndentationError object>'
p19
sS'__dict__'
p20
S'{}'
p21
sS'__sizeof__'
p22
S'<built-in method __sizeof__ of exceptions.IndentationError object>'
p23
sS'__init__'
p24
S"<method-wrapper '__init__' of exceptions.IndentationError object>"
p25
sS'__setattr__'
p26
S"<method-wrapper '__setattr__' of exceptions.IndentationError object>"
p27
sS'__reduce_ex__'
p28
S'<built-in method __reduce_ex__ of exceptions.IndentationError object>'
p29
sS'__new__'
p30
S'<built-in method __new__ of type object>'
p31
sS'__format__'
p32
S'<built-in method __format__ of exceptions.IndentationError object>'
p33
sS'__class__'
p34
S"<type 'exceptions.IndentationError'>"
p35
sS'filename'
p36
S"'/Users/joselara/www/web2py/applications/randomwords/controllers/default.py'"
p37
sS'lineno'
p38
S'17'
p39
sS'msg'
p40
S"'unindent does not match any outer indentation level'"
p41
sS'__doc__'
p42
S"'Improper indentation.'"
p43
sS'__getitem__'
p44
S"<method-wrapper '__getitem__' of exceptions.IndentationError object>"
p45
sS'__setstate__'
p46
S'<built-in method __setstate__ of exceptions.IndentationError object>'
p47
sS'__getattribute__'
p48
S"<method-wrapper '__getattribute__' of exceptions.IndentationError object>"
p49
sS'print_file_and_line'
p50
S'None'
p51
sS'args'
p52
S"('unindent does not match any outer indentation level', ('/Users/joselara/www/web2py/applications/randomwords/controllers/default.py', 17, 25, '    word_id = db.word.id\\n'))"
p53
sS'__subclasshook__'
p54
S'<built-in method __subclasshook__ of type object>'
p55
sS'offset'
p56
S'25'
p57
sS'__unicode__'
p58
S'<built-in method __unicode__ of exceptions.IndentationError object>'
p59
sS'__delattr__'
p60
S"<method-wrapper '__delattr__' of exceptions.IndentationError object>"
p61
sS'__repr__'
p62
S"<method-wrapper '__repr__' of exceptions.IndentationError object>"
p63
sS'__hash__'
p64
S"<method-wrapper '__hash__' of exceptions.IndentationError object>"
p65
ssS'evalue'
p66
S'unindent does not match any outer indentation level (default.py, line 17)'
p67
sS'request'
p68
ccopy_reg
_reconstructor
p69
(cgluon.html
BEAUTIFY
p70
c__builtin__
object
p71
NtRp72
(dp73
S'attributes'
p74
(dp75
sS'components'
p76
(lp77
g69
(cgluon.html
TABLE
p78
g71
NtRp79
(dp80
g74
(dp81
S'level'
p82
I5
ssS'parent'
p83
Nsg76
(lp84
g69
(cgluon.html
TR
p85
g71
NtRp86
(dp87
g74
(dp88
sg83
g79
sg76
(lp89
g69
(cgluon.html
TD
p90
g71
NtRp91
(dp92
g74
(dp93
S'_style'
p94
S'font-weight:bold;vertical-align:top'
p95
ssg83
g86
sg76
(lp96
S'ajax'
p97
asbag69
(g90
g71
NtRp98
(dp99
g74
(dp100
S'_valign'
p101
S'top'
p102
ssg83
g86
sg76
(lp103
S':'
asbag69
(g90
g71
NtRp104
(dp105
g74
(dp106
sg83
g86
sg76
(lp107
g69
(g70
g71
NtRp108
(dp109
g74
(dp110
g82
I5
ssg83
g104
sg76
(lp111
S'True'
p112
asbasbasbag69
(g85
g71
NtRp113
(dp114
g74
(dp115
sg83
g79
sg76
(lp116
g69
(g90
g71
NtRp117
(dp118
g74
(dp119
g94
g95
ssg83
g113
sg76
(lp120
S'application'
p121
asbag69
(g90
g71
NtRp122
(dp123
g74
(dp124
g101
g102
ssg83
g113
sg76
(lp125
S':'
asbag69
(g90
g71
NtRp126
(dp127
g74
(dp128
sg83
g113
sg76
(lp129
g69
(g70
g71
NtRp130
(dp131
g74
(dp132
g82
I5
ssg83
g126
sg76
(lp133
S'randomwords'
p134
asbasbasbag69
(g85
g71
NtRp135
(dp136
g74
(dp137
sg83
g79
sg76
(lp138
g69
(g90
g71
NtRp139
(dp140
g74
(dp141
g94
g95
ssg83
g135
sg76
(lp142
g52
asbag69
(g90
g71
NtRp143
(dp144
g74
(dp145
g101
g102
ssg83
g135
sg76
(lp146
S':'
asbag69
(g90
g71
NtRp147
(dp148
g74
(dp149
sg83
g135
sg76
(lp150
g69
(g70
g71
NtRp151
(dp152
g74
(dp153
g82
I5
ssg83
g147
sg76
(lp154
g69
(g78
g71
NtRp155
(dp156
g74
(dp157
g82
I4
ssg83
Nsg76
(lp158
sbasbasbasbag69
(g85
g71
NtRp159
(dp160
g74
(dp161
sg83
g79
sg76
(lp162
g69
(g90
g71
NtRp163
(dp164
g74
(dp165
g94
g95
ssg83
g159
sg76
(lp166
S'body'
p167
asbag69
(g90
g71
NtRp168
(dp169
g74
(dp170
g101
g102
ssg83
g159
sg76
(lp171
S':'
asbag69
(g90
g71
NtRp172
(dp173
g74
(dp174
sg83
g159
sg76
(lp175
g69
(g70
g71
NtRp176
(dp177
g74
(dp178
g82
I5
ssg83
g172
sg76
(lp179
S"<open file '<fdopen>', mode 'w+b' at 0x10d0d1c90>"
p180
asbasbasbag69
(g85
g71
NtRp181
(dp182
g74
(dp183
sg83
g79
sg76
(lp184
g69
(g90
g71
NtRp185
(dp186
g74
(dp187
g94
g95
ssg83
g181
sg76
(lp188
S'cid'
p189
asbag69
(g90
g71
NtRp190
(dp191
g74
(dp192
g101
g102
ssg83
g181
sg76
(lp193
S':'
asbag69
(g90
g71
NtRp194
(dp195
g74
(dp196
sg83
g181
sg76
(lp197
g69
(g70
g71
NtRp198
(dp199
g74
(dp200
g82
I5
ssg83
g194
sg76
(lp201
S'None'
p202
asbasbasbag69
(g85
g71
NtRp203
(dp204
g74
(dp205
sg83
g79
sg76
(lp206
g69
(g90
g71
NtRp207
(dp208
g74
(dp209
g94
g95
ssg83
g203
sg76
(lp210
S'client'
p211
asbag69
(g90
g71
NtRp212
(dp213
g74
(dp214
g101
g102
ssg83
g203
sg76
(lp215
S':'
asbag69
(g90
g71
NtRp216
(dp217
g74
(dp218
sg83
g203
sg76
(lp219
g69
(g70
g71
NtRp220
(dp221
g74
(dp222
g82
I5
ssg83
g216
sg76
(lp223
S'127.0.0.1'
p224
asbasbasbag69
(g85
g71
NtRp225
(dp226
g74
(dp227
sg83
g79
sg76
(lp228
g69
(g90
g71
NtRp229
(dp230
g74
(dp231
g94
g95
ssg83
g225
sg76
(lp232
S'controller'
p233
asbag69
(g90
g71
NtRp234
(dp235
g74
(dp236
g101
g102
ssg83
g225
sg76
(lp237
S':'
asbag69
(g90
g71
NtRp238
(dp239
g74
(dp240
sg83
g225
sg76
(lp241
g69
(g70
g71
NtRp242
(dp243
g74
(dp244
g82
I5
ssg83
g238
sg76
(lp245
S'default'
p246
asbasbasbag69
(g85
g71
NtRp247
(dp248
g74
(dp249
sg83
g79
sg76
(lp250
g69
(g90
g71
NtRp251
(dp252
g74
(dp253
g94
g95
ssg83
g247
sg76
(lp254
S'cookies'
p255
asbag69
(g90
g71
NtRp256
(dp257
g74
(dp258
g101
g102
ssg83
g247
sg76
(lp259
S':'
asbag69
(g90
g71
NtRp260
(dp261
g74
(dp262
sg83
g247
sg76
(lp263
g69
(g70
g71
NtRp264
(dp265
g74
(dp266
g82
I5
ssg83
g260
sg76
(lp267
g69
(g78
g71
NtRp268
(dp269
g74
(dp270
g82
I4
ssg83
Nsg76
(lp271
g69
(g85
g71
NtRp272
(dp273
g74
(dp274
sg83
g268
sg76
(lp275
g69
(g90
g71
NtRp276
(dp277
g74
(dp278
g94
g95
ssg83
g272
sg76
(lp279
S'session_id_admin'
p280
asbag69
(g90
g71
NtRp281
(dp282
g74
(dp283
g101
g102
ssg83
g272
sg76
(lp284
S':'
asbag69
(g90
g71
NtRp285
(dp286
g74
(dp287
sg83
g272
sg76
(lp288
g69
(g70
g71
NtRp289
(dp290
g74
(dp291
g82
I4
ssg83
g285
sg76
(lp292
S'127.0.0.1-3ad56f0e-bc14-4410-b678-7c708c9d6393'
p293
ag69
(g78
g71
NtRp294
(dp295
g74
(dp296
g82
I3
ssg83
Nsg76
(lp297
g69
(g85
g71
NtRp298
(dp299
g74
(dp300
sg83
g294
sg76
(lp301
g69
(g90
g71
NtRp302
(dp303
g74
(dp304
g94
g95
ssg83
g298
sg76
(lp305
S'comment'
p306
asbag69
(g90
g71
NtRp307
(dp308
g74
(dp309
g101
g102
ssg83
g298
sg76
(lp310
S':'
asbag69
(g90
g71
NtRp311
(dp312
g74
(dp313
sg83
g298
sg76
(lp314
g69
(g70
g71
NtRp315
(dp316
g74
(dp317
g82
I3
ssg83
g311
sg76
(lp318
S''
asbasbasbag69
(g85
g71
NtRp319
(dp320
g74
(dp321
sg83
g294
sg76
(lp322
g69
(g90
g71
NtRp323
(dp324
g74
(dp325
g94
g95
ssg83
g319
sg76
(lp326
S'domain'
p327
asbag69
(g90
g71
NtRp328
(dp329
g74
(dp330
g101
g102
ssg83
g319
sg76
(lp331
S':'
asbag69
(g90
g71
NtRp332
(dp333
g74
(dp334
sg83
g319
sg76
(lp335
g69
(g70
g71
NtRp336
(dp337
g74
(dp338
g82
I3
ssg83
g332
sg76
(lp339
S''
asbasbasbag69
(g85
g71
NtRp340
(dp341
g74
(dp342
sg83
g294
sg76
(lp343
g69
(g90
g71
NtRp344
(dp345
g74
(dp346
g94
g95
ssg83
g340
sg76
(lp347
S'expires'
p348
asbag69
(g90
g71
NtRp349
(dp350
g74
(dp351
g101
g102
ssg83
g340
sg76
(lp352
S':'
asbag69
(g90
g71
NtRp353
(dp354
g74
(dp355
sg83
g340
sg76
(lp356
g69
(g70
g71
NtRp357
(dp358
g74
(dp359
g82
I3
ssg83
g353
sg76
(lp360
S''
asbasbasbag69
(g85
g71
NtRp361
(dp362
g74
(dp363
sg83
g294
sg76
(lp364
g69
(g90
g71
NtRp365
(dp366
g74
(dp367
g94
g95
ssg83
g361
sg76
(lp368
S'httponly'
p369
asbag69
(g90
g71
NtRp370
(dp371
g74
(dp372
g101
g102
ssg83
g361
sg76
(lp373
S':'
asbag69
(g90
g71
NtRp374
(dp375
g74
(dp376
sg83
g361
sg76
(lp377
g69
(g70
g71
NtRp378
(dp379
g74
(dp380
g82
I3
ssg83
g374
sg76
(lp381
S''
asbasbasbag69
(g85
g71
NtRp382
(dp383
g74
(dp384
sg83
g294
sg76
(lp385
g69
(g90
g71
NtRp386
(dp387
g74
(dp388
g94
g95
ssg83
g382
sg76
(lp389
S'max-age'
p390
asbag69
(g90
g71
NtRp391
(dp392
g74
(dp393
g101
g102
ssg83
g382
sg76
(lp394
S':'
asbag69
(g90
g71
NtRp395
(dp396
g74
(dp397
sg83
g382
sg76
(lp398
g69
(g70
g71
NtRp399
(dp400
g74
(dp401
g82
I3
ssg83
g395
sg76
(lp402
S''
asbasbasbag69
(g85
g71
NtRp403
(dp404
g74
(dp405
sg83
g294
sg76
(lp406
g69
(g90
g71
NtRp407
(dp408
g74
(dp409
g94
g95
ssg83
g403
sg76
(lp410
S'path'
p411
asbag69
(g90
g71
NtRp412
(dp413
g74
(dp414
g101
g102
ssg83
g403
sg76
(lp415
S':'
asbag69
(g90
g71
NtRp416
(dp417
g74
(dp418
sg83
g403
sg76
(lp419
g69
(g70
g71
NtRp420
(dp421
g74
(dp422
g82
I3
ssg83
g416
sg76
(lp423
S''
asbasbasbag69
(g85
g71
NtRp424
(dp425
g74
(dp426
sg83
g294
sg76
(lp427
g69
(g90
g71
NtRp428
(dp429
g74
(dp430
g94
g95
ssg83
g424
sg76
(lp431
S'secure'
p432
asbag69
(g90
g71
NtRp433
(dp434
g74
(dp435
g101
g102
ssg83
g424
sg76
(lp436
S':'
asbag69
(g90
g71
NtRp437
(dp438
g74
(dp439
sg83
g424
sg76
(lp440
g69
(g70
g71
NtRp441
(dp442
g74
(dp443
g82
I3
ssg83
g437
sg76
(lp444
S''
asbasbasbag69
(g85
g71
NtRp445
(dp446
g74
(dp447
sg83
g294
sg76
(lp448
g69
(g90
g71
NtRp449
(dp450
g74
(dp451
g94
g95
ssg83
g445
sg76
(lp452
S'version'
p453
asbag69
(g90
g71
NtRp454
(dp455
g74
(dp456
g101
g102
ssg83
g445
sg76
(lp457
S':'
asbag69
(g90
g71
NtRp458
(dp459
g74
(dp460
sg83
g445
sg76
(lp461
g69
(g70
g71
NtRp462
(dp463
g74
(dp464
g82
I3
ssg83
g458
sg76
(lp465
S''
asbasbasbasbasbasbasbag69
(g85
g71
NtRp466
(dp467
g74
(dp468
sg83
g268
sg76
(lp469
g69
(g90
g71
NtRp470
(dp471
g74
(dp472
g94
g95
ssg83
g466
sg76
(lp473
S'session_id_fayol'
p474
asbag69
(g90
g71
NtRp475
(dp476
g74
(dp477
g101
g102
ssg83
g466
sg76
(lp478
S':'
asbag69
(g90
g71
NtRp479
(dp480
g74
(dp481
sg83
g466
sg76
(lp482
g69
(g70
g71
NtRp483
(dp484
g74
(dp485
g82
I4
ssg83
g479
sg76
(lp486
S'127.0.0.1-4365d02b-8819-47e5-a724-886dfa22cb58'
p487
ag69
(g78
g71
NtRp488
(dp489
g74
(dp490
g82
I3
ssg83
Nsg76
(lp491
g69
(g85
g71
NtRp492
(dp493
g74
(dp494
sg83
g488
sg76
(lp495
g69
(g90
g71
NtRp496
(dp497
g74
(dp498
g94
g95
ssg83
g492
sg76
(lp499
g306
asbag69
(g90
g71
NtRp500
(dp501
g74
(dp502
g101
g102
ssg83
g492
sg76
(lp503
S':'
asbag69
(g90
g71
NtRp504
(dp505
g74
(dp506
sg83
g492
sg76
(lp507
g69
(g70
g71
NtRp508
(dp509
g74
(dp510
g82
I3
ssg83
g504
sg76
(lp511
S''
asbasbasbag69
(g85
g71
NtRp512
(dp513
g74
(dp514
sg83
g488
sg76
(lp515
g69
(g90
g71
NtRp516
(dp517
g74
(dp518
g94
g95
ssg83
g512
sg76
(lp519
g327
asbag69
(g90
g71
NtRp520
(dp521
g74
(dp522
g101
g102
ssg83
g512
sg76
(lp523
S':'
asbag69
(g90
g71
NtRp524
(dp525
g74
(dp526
sg83
g512
sg76
(lp527
g69
(g70
g71
NtRp528
(dp529
g74
(dp530
g82
I3
ssg83
g524
sg76
(lp531
S''
asbasbasbag69
(g85
g71
NtRp532
(dp533
g74
(dp534
sg83
g488
sg76
(lp535
g69
(g90
g71
NtRp536
(dp537
g74
(dp538
g94
g95
ssg83
g532
sg76
(lp539
g348
asbag69
(g90
g71
NtRp540
(dp541
g74
(dp542
g101
g102
ssg83
g532
sg76
(lp543
S':'
asbag69
(g90
g71
NtRp544
(dp545
g74
(dp546
sg83
g532
sg76
(lp547
g69
(g70
g71
NtRp548
(dp549
g74
(dp550
g82
I3
ssg83
g544
sg76
(lp551
S''
asbasbasbag69
(g85
g71
NtRp552
(dp553
g74
(dp554
sg83
g488
sg76
(lp555
g69
(g90
g71
NtRp556
(dp557
g74
(dp558
g94
g95
ssg83
g552
sg76
(lp559
g369
asbag69
(g90
g71
NtRp560
(dp561
g74
(dp562
g101
g102
ssg83
g552
sg76
(lp563
S':'
asbag69
(g90
g71
NtRp564
(dp565
g74
(dp566
sg83
g552
sg76
(lp567
g69
(g70
g71
NtRp568
(dp569
g74
(dp570
g82
I3
ssg83
g564
sg76
(lp571
S''
asbasbasbag69
(g85
g71
NtRp572
(dp573
g74
(dp574
sg83
g488
sg76
(lp575
g69
(g90
g71
NtRp576
(dp577
g74
(dp578
g94
g95
ssg83
g572
sg76
(lp579
g390
asbag69
(g90
g71
NtRp580
(dp581
g74
(dp582
g101
g102
ssg83
g572
sg76
(lp583
S':'
asbag69
(g90
g71
NtRp584
(dp585
g74
(dp586
sg83
g572
sg76
(lp587
g69
(g70
g71
NtRp588
(dp589
g74
(dp590
g82
I3
ssg83
g584
sg76
(lp591
S''
asbasbasbag69
(g85
g71
NtRp592
(dp593
g74
(dp594
sg83
g488
sg76
(lp595
g69
(g90
g71
NtRp596
(dp597
g74
(dp598
g94
g95
ssg83
g592
sg76
(lp599
g411
asbag69
(g90
g71
NtRp600
(dp601
g74
(dp602
g101
g102
ssg83
g592
sg76
(lp603
S':'
asbag69
(g90
g71
NtRp604
(dp605
g74
(dp606
sg83
g592
sg76
(lp607
g69
(g70
g71
NtRp608
(dp609
g74
(dp610
g82
I3
ssg83
g604
sg76
(lp611
S''
asbasbasbag69
(g85
g71
NtRp612
(dp613
g74
(dp614
sg83
g488
sg76
(lp615
g69
(g90
g71
NtRp616
(dp617
g74
(dp618
g94
g95
ssg83
g612
sg76
(lp619
g432
asbag69
(g90
g71
NtRp620
(dp621
g74
(dp622
g101
g102
ssg83
g612
sg76
(lp623
S':'
asbag69
(g90
g71
NtRp624
(dp625
g74
(dp626
sg83
g612
sg76
(lp627
g69
(g70
g71
NtRp628
(dp629
g74
(dp630
g82
I3
ssg83
g624
sg76
(lp631
S''
asbasbasbag69
(g85
g71
NtRp632
(dp633
g74
(dp634
sg83
g488
sg76
(lp635
g69
(g90
g71
NtRp636
(dp637
g74
(dp638
g94
g95
ssg83
g632
sg76
(lp639
g453
asbag69
(g90
g71
NtRp640
(dp641
g74
(dp642
g101
g102
ssg83
g632
sg76
(lp643
S':'
asbag69
(g90
g71
NtRp644
(dp645
g74
(dp646
sg83
g632
sg76
(lp647
g69
(g70
g71
NtRp648
(dp649
g74
(dp650
g82
I3
ssg83
g644
sg76
(lp651
S''
asbasbasbasbasbasbasbag69
(g85
g71
NtRp652
(dp653
g74
(dp654
sg83
g268
sg76
(lp655
g69
(g90
g71
NtRp656
(dp657
g74
(dp658
g94
g95
ssg83
g652
sg76
(lp659
S'session_id_randomwords'
p660
asbag69
(g90
g71
NtRp661
(dp662
g74
(dp663
g101
g102
ssg83
g652
sg76
(lp664
S':'
asbag69
(g90
g71
NtRp665
(dp666
g74
(dp667
sg83
g652
sg76
(lp668
g69
(g70
g71
NtRp669
(dp670
g74
(dp671
g82
I4
ssg83
g665
sg76
(lp672
S'127.0.0.1-0bd8aba9-4c26-4c3e-ba38-4feb8157de7a'
p673
ag69
(g78
g71
NtRp674
(dp675
g74
(dp676
g82
I3
ssg83
Nsg76
(lp677
g69
(g85
g71
NtRp678
(dp679
g74
(dp680
sg83
g674
sg76
(lp681
g69
(g90
g71
NtRp682
(dp683
g74
(dp684
g94
g95
ssg83
g678
sg76
(lp685
g306
asbag69
(g90
g71
NtRp686
(dp687
g74
(dp688
g101
g102
ssg83
g678
sg76
(lp689
S':'
asbag69
(g90
g71
NtRp690
(dp691
g74
(dp692
sg83
g678
sg76
(lp693
g69
(g70
g71
NtRp694
(dp695
g74
(dp696
g82
I3
ssg83
g690
sg76
(lp697
S''
asbasbasbag69
(g85
g71
NtRp698
(dp699
g74
(dp700
sg83
g674
sg76
(lp701
g69
(g90
g71
NtRp702
(dp703
g74
(dp704
g94
g95
ssg83
g698
sg76
(lp705
g327
asbag69
(g90
g71
NtRp706
(dp707
g74
(dp708
g101
g102
ssg83
g698
sg76
(lp709
S':'
asbag69
(g90
g71
NtRp710
(dp711
g74
(dp712
sg83
g698
sg76
(lp713
g69
(g70
g71
NtRp714
(dp715
g74
(dp716
g82
I3
ssg83
g710
sg76
(lp717
S''
asbasbasbag69
(g85
g71
NtRp718
(dp719
g74
(dp720
sg83
g674
sg76
(lp721
g69
(g90
g71
NtRp722
(dp723
g74
(dp724
g94
g95
ssg83
g718
sg76
(lp725
g348
asbag69
(g90
g71
NtRp726
(dp727
g74
(dp728
g101
g102
ssg83
g718
sg76
(lp729
S':'
asbag69
(g90
g71
NtRp730
(dp731
g74
(dp732
sg83
g718
sg76
(lp733
g69
(g70
g71
NtRp734
(dp735
g74
(dp736
g82
I3
ssg83
g730
sg76
(lp737
S''
asbasbasbag69
(g85
g71
NtRp738
(dp739
g74
(dp740
sg83
g674
sg76
(lp741
g69
(g90
g71
NtRp742
(dp743
g74
(dp744
g94
g95
ssg83
g738
sg76
(lp745
g369
asbag69
(g90
g71
NtRp746
(dp747
g74
(dp748
g101
g102
ssg83
g738
sg76
(lp749
S':'
asbag69
(g90
g71
NtRp750
(dp751
g74
(dp752
sg83
g738
sg76
(lp753
g69
(g70
g71
NtRp754
(dp755
g74
(dp756
g82
I3
ssg83
g750
sg76
(lp757
S''
asbasbasbag69
(g85
g71
NtRp758
(dp759
g74
(dp760
sg83
g674
sg76
(lp761
g69
(g90
g71
NtRp762
(dp763
g74
(dp764
g94
g95
ssg83
g758
sg76
(lp765
g390
asbag69
(g90
g71
NtRp766
(dp767
g74
(dp768
g101
g102
ssg83
g758
sg76
(lp769
S':'
asbag69
(g90
g71
NtRp770
(dp771
g74
(dp772
sg83
g758
sg76
(lp773
g69
(g70
g71
NtRp774
(dp775
g74
(dp776
g82
I3
ssg83
g770
sg76
(lp777
S''
asbasbasbag69
(g85
g71
NtRp778
(dp779
g74
(dp780
sg83
g674
sg76
(lp781
g69
(g90
g71
NtRp782
(dp783
g74
(dp784
g94
g95
ssg83
g778
sg76
(lp785
g411
asbag69
(g90
g71
NtRp786
(dp787
g74
(dp788
g101
g102
ssg83
g778
sg76
(lp789
S':'
asbag69
(g90
g71
NtRp790
(dp791
g74
(dp792
sg83
g778
sg76
(lp793
g69
(g70
g71
NtRp794
(dp795
g74
(dp796
g82
I3
ssg83
g790
sg76
(lp797
S''
asbasbasbag69
(g85
g71
NtRp798
(dp799
g74
(dp800
sg83
g674
sg76
(lp801
g69
(g90
g71
NtRp802
(dp803
g74
(dp804
g94
g95
ssg83
g798
sg76
(lp805
g432
asbag69
(g90
g71
NtRp806
(dp807
g74
(dp808
g101
g102
ssg83
g798
sg76
(lp809
S':'
asbag69
(g90
g71
NtRp810
(dp811
g74
(dp812
sg83
g798
sg76
(lp813
g69
(g70
g71
NtRp814
(dp815
g74
(dp816
g82
I3
ssg83
g810
sg76
(lp817
S''
asbasbasbag69
(g85
g71
NtRp818
(dp819
g74
(dp820
sg83
g674
sg76
(lp821
g69
(g90
g71
NtRp822
(dp823
g74
(dp824
g94
g95
ssg83
g818
sg76
(lp825
g453
asbag69
(g90
g71
NtRp826
(dp827
g74
(dp828
g101
g102
ssg83
g818
sg76
(lp829
S':'
asbag69
(g90
g71
NtRp830
(dp831
g74
(dp832
sg83
g818
sg76
(lp833
g69
(g70
g71
NtRp834
(dp835
g74
(dp836
g82
I3
ssg83
g830
sg76
(lp837
S''
asbasbasbasbasbasbasbag69
(g85
g71
NtRp838
(dp839
g74
(dp840
sg83
g268
sg76
(lp841
g69
(g90
g71
NtRp842
(dp843
g74
(dp844
g94
g95
ssg83
g838
sg76
(lp845
S'session_id_welcome'
p846
asbag69
(g90
g71
NtRp847
(dp848
g74
(dp849
g101
g102
ssg83
g838
sg76
(lp850
S':'
asbag69
(g90
g71
NtRp851
(dp852
g74
(dp853
sg83
g838
sg76
(lp854
g69
(g70
g71
NtRp855
(dp856
g74
(dp857
g82
I4
ssg83
g851
sg76
(lp858
S'127.0.0.1-7dbbf1c0-4339-41b2-90c0-6cdd1b8d159f'
p859
ag69
(g78
g71
NtRp860
(dp861
g74
(dp862
g82
I3
ssg83
Nsg76
(lp863
g69
(g85
g71
NtRp864
(dp865
g74
(dp866
sg83
g860
sg76
(lp867
g69
(g90
g71
NtRp868
(dp869
g74
(dp870
g94
g95
ssg83
g864
sg76
(lp871
g306
asbag69
(g90
g71
NtRp872
(dp873
g74
(dp874
g101
g102
ssg83
g864
sg76
(lp875
S':'
asbag69
(g90
g71
NtRp876
(dp877
g74
(dp878
sg83
g864
sg76
(lp879
g69
(g70
g71
NtRp880
(dp881
g74
(dp882
g82
I3
ssg83
g876
sg76
(lp883
S''
asbasbasbag69
(g85
g71
NtRp884
(dp885
g74
(dp886
sg83
g860
sg76
(lp887
g69
(g90
g71
NtRp888
(dp889
g74
(dp890
g94
g95
ssg83
g884
sg76
(lp891
g327
asbag69
(g90
g71
NtRp892
(dp893
g74
(dp894
g101
g102
ssg83
g884
sg76
(lp895
S':'
asbag69
(g90
g71
NtRp896
(dp897
g74
(dp898
sg83
g884
sg76
(lp899
g69
(g70
g71
NtRp900
(dp901
g74
(dp902
g82
I3
ssg83
g896
sg76
(lp903
S''
asbasbasbag69
(g85
g71
NtRp904
(dp905
g74
(dp906
sg83
g860
sg76
(lp907
g69
(g90
g71
NtRp908
(dp909
g74
(dp910
g94
g95
ssg83
g904
sg76
(lp911
g348
asbag69
(g90
g71
NtRp912
(dp913
g74
(dp914
g101
g102
ssg83
g904
sg76
(lp915
S':'
asbag69
(g90
g71
NtRp916
(dp917
g74
(dp918
sg83
g904
sg76
(lp919
g69
(g70
g71
NtRp920
(dp921
g74
(dp922
g82
I3
ssg83
g916
sg76
(lp923
S''
asbasbasbag69
(g85
g71
NtRp924
(dp925
g74
(dp926
sg83
g860
sg76
(lp927
g69
(g90
g71
NtRp928
(dp929
g74
(dp930
g94
g95
ssg83
g924
sg76
(lp931
g369
asbag69
(g90
g71
NtRp932
(dp933
g74
(dp934
g101
g102
ssg83
g924
sg76
(lp935
S':'
asbag69
(g90
g71
NtRp936
(dp937
g74
(dp938
sg83
g924
sg76
(lp939
g69
(g70
g71
NtRp940
(dp941
g74
(dp942
g82
I3
ssg83
g936
sg76
(lp943
S''
asbasbasbag69
(g85
g71
NtRp944
(dp945
g74
(dp946
sg83
g860
sg76
(lp947
g69
(g90
g71
NtRp948
(dp949
g74
(dp950
g94
g95
ssg83
g944
sg76
(lp951
g390
asbag69
(g90
g71
NtRp952
(dp953
g74
(dp954
g101
g102
ssg83
g944
sg76
(lp955
S':'
asbag69
(g90
g71
NtRp956
(dp957
g74
(dp958
sg83
g944
sg76
(lp959
g69
(g70
g71
NtRp960
(dp961
g74
(dp962
g82
I3
ssg83
g956
sg76
(lp963
S''
asbasbasbag69
(g85
g71
NtRp964
(dp965
g74
(dp966
sg83
g860
sg76
(lp967
g69
(g90
g71
NtRp968
(dp969
g74
(dp970
g94
g95
ssg83
g964
sg76
(lp971
g411
asbag69
(g90
g71
NtRp972
(dp973
g74
(dp974
g101
g102
ssg83
g964
sg76
(lp975
S':'
asbag69
(g90
g71
NtRp976
(dp977
g74
(dp978
sg83
g964
sg76
(lp979
g69
(g70
g71
NtRp980
(dp981
g74
(dp982
g82
I3
ssg83
g976
sg76
(lp983
S''
asbasbasbag69
(g85
g71
NtRp984
(dp985
g74
(dp986
sg83
g860
sg76
(lp987
g69
(g90
g71
NtRp988
(dp989
g74
(dp990
g94
g95
ssg83
g984
sg76
(lp991
g432
asbag69
(g90
g71
NtRp992
(dp993
g74
(dp994
g101
g102
ssg83
g984
sg76
(lp995
S':'
asbag69
(g90
g71
NtRp996
(dp997
g74
(dp998
sg83
g984
sg76
(lp999
g69
(g70
g71
NtRp1000
(dp1001
g74
(dp1002
g82
I3
ssg83
g996
sg76
(lp1003
S''
asbasbasbag69
(g85
g71
NtRp1004
(dp1005
g74
(dp1006
sg83
g860
sg76
(lp1007
g69
(g90
g71
NtRp1008
(dp1009
g74
(dp1010
g94
g95
ssg83
g1004
sg76
(lp1011
g453
asbag69
(g90
g71
NtRp1012
(dp1013
g74
(dp1014
g101
g102
ssg83
g1004
sg76
(lp1015
S':'
asbag69
(g90
g71
NtRp1016
(dp1017
g74
(dp1018
sg83
g1004
sg76
(lp1019
g69
(g70
g71
NtRp1020
(dp1021
g74
(dp1022
g82
I3
ssg83
g1016
sg76
(lp1023
S''
asbasbasbasbasbasbasbasbasbasbasbag69
(g85
g71
NtRp1024
(dp1025
g74
(dp1026
sg83
g79
sg76
(lp1027
g69
(g90
g71
NtRp1028
(dp1029
g74
(dp1030
g94
g95
ssg83
g1024
sg76
(lp1031
S'env'
p1032
asbag69
(g90
g71
NtRp1033
(dp1034
g74
(dp1035
g101
g102
ssg83
g1024
sg76
(lp1036
S':'
asbag69
(g90
g71
NtRp1037
(dp1038
g74
(dp1039
sg83
g1024
sg76
(lp1040
g69
(g70
g71
NtRp1041
(dp1042
g74
(dp1043
g82
I5
ssg83
g1037
sg76
(lp1044
g69
(g78
g71
NtRp1045
(dp1046
g74
(dp1047
g82
I4
ssg83
Nsg76
(lp1048
g69
(g85
g71
NtRp1049
(dp1050
g74
(dp1051
sg83
g1045
sg76
(lp1052
g69
(g90
g71
NtRp1053
(dp1054
g74
(dp1055
g94
g95
ssg83
g1049
sg76
(lp1056
S'app_folders'
p1057
asbag69
(g90
g71
NtRp1058
(dp1059
g74
(dp1060
g101
g102
ssg83
g1049
sg76
(lp1061
S':'
asbag69
(g90
g71
NtRp1062
(dp1063
g74
(dp1064
sg83
g1049
sg76
(lp1065
g69
(g70
g71
NtRp1066
(dp1067
g74
(dp1068
g82
I4
ssg83
g1062
sg76
(lp1069
S"set(['/Users/joselara/www/web2py/applications/fayol/', '/Users/joselara/www/web2py/applications/randomwords/'])"
p1070
asbasbasbag69
(g85
g71
NtRp1071
(dp1072
g74
(dp1073
sg83
g1045
sg76
(lp1074
g69
(g90
g71
NtRp1075
(dp1076
g74
(dp1077
g94
g95
ssg83
g1071
sg76
(lp1078
S'applications_parent'
p1079
asbag69
(g90
g71
NtRp1080
(dp1081
g74
(dp1082
g101
g102
ssg83
g1071
sg76
(lp1083
S':'
asbag69
(g90
g71
NtRp1084
(dp1085
g74
(dp1086
sg83
g1071
sg76
(lp1087
g69
(g70
g71
NtRp1088
(dp1089
g74
(dp1090
g82
I4
ssg83
g1084
sg76
(lp1091
S'/Users/joselara/www/web2py'
p1092
asbasbasbag69
(g85
g71
NtRp1093
(dp1094
g74
(dp1095
sg83
g1045
sg76
(lp1096
g69
(g90
g71
NtRp1097
(dp1098
g74
(dp1099
g94
g95
ssg83
g1093
sg76
(lp1100
S'content_length'
p1101
asbag69
(g90
g71
NtRp1102
(dp1103
g74
(dp1104
g101
g102
ssg83
g1093
sg76
(lp1105
S':'
asbag69
(g90
g71
NtRp1106
(dp1107
g74
(dp1108
sg83
g1093
sg76
(lp1109
g69
(g70
g71
NtRp1110
(dp1111
g74
(dp1112
g82
I4
ssg83
g1106
sg76
(lp1113
S'0'
asbasbasbag69
(g85
g71
NtRp1114
(dp1115
g74
(dp1116
sg83
g1045
sg76
(lp1117
g69
(g90
g71
NtRp1118
(dp1119
g74
(dp1120
g94
g95
ssg83
g1114
sg76
(lp1121
S'db_sessions'
p1122
asbag69
(g90
g71
NtRp1123
(dp1124
g74
(dp1125
g101
g102
ssg83
g1114
sg76
(lp1126
S':'
asbag69
(g90
g71
NtRp1127
(dp1128
g74
(dp1129
sg83
g1114
sg76
(lp1130
g69
(g70
g71
NtRp1131
(dp1132
g74
(dp1133
g82
I4
ssg83
g1127
sg76
(lp1134
S'set([])'
p1135
asbasbasbag69
(g85
g71
NtRp1136
(dp1137
g74
(dp1138
sg83
g1045
sg76
(lp1139
g69
(g90
g71
NtRp1140
(dp1141
g74
(dp1142
g94
g95
ssg83
g1136
sg76
(lp1143
S'debugging'
p1144
asbag69
(g90
g71
NtRp1145
(dp1146
g74
(dp1147
g101
g102
ssg83
g1136
sg76
(lp1148
S':'
asbag69
(g90
g71
NtRp1149
(dp1150
g74
(dp1151
sg83
g1136
sg76
(lp1152
g69
(g70
g71
NtRp1153
(dp1154
g74
(dp1155
g82
I4
ssg83
g1149
sg76
(lp1156
S'False'
p1157
asbasbasbag69
(g85
g71
NtRp1158
(dp1159
g74
(dp1160
sg83
g1045
sg76
(lp1161
g69
(g90
g71
NtRp1162
(dp1163
g74
(dp1164
g94
g95
ssg83
g1158
sg76
(lp1165
S'document_root'
p1166
asbag69
(g90
g71
NtRp1167
(dp1168
g74
(dp1169
g101
g102
ssg83
g1158
sg76
(lp1170
S':'
asbag69
(g90
g71
NtRp1171
(dp1172
g74
(dp1173
sg83
g1158
sg76
(lp1174
g69
(g70
g71
NtRp1175
(dp1176
g74
(dp1177
g82
I4
ssg83
g1171
sg76
(lp1178
S'/Library/WebServer/Documents'
p1179
asbasbasbag69
(g85
g71
NtRp1180
(dp1181
g74
(dp1182
sg83
g1045
sg76
(lp1183
g69
(g90
g71
NtRp1184
(dp1185
g74
(dp1186
g94
g95
ssg83
g1180
sg76
(lp1187
S'gateway_interface'
p1188
asbag69
(g90
g71
NtRp1189
(dp1190
g74
(dp1191
g101
g102
ssg83
g1180
sg76
(lp1192
S':'
asbag69
(g90
g71
NtRp1193
(dp1194
g74
(dp1195
sg83
g1180
sg76
(lp1196
g69
(g70
g71
NtRp1197
(dp1198
g74
(dp1199
g82
I4
ssg83
g1193
sg76
(lp1200
S'CGI/1.1'
p1201
asbasbasbag69
(g85
g71
NtRp1202
(dp1203
g74
(dp1204
sg83
g1045
sg76
(lp1205
g69
(g90
g71
NtRp1206
(dp1207
g74
(dp1208
g94
g95
ssg83
g1202
sg76
(lp1209
S'gluon_parent'
p1210
asbag69
(g90
g71
NtRp1211
(dp1212
g74
(dp1213
g101
g102
ssg83
g1202
sg76
(lp1214
S':'
asbag69
(g90
g71
NtRp1215
(dp1216
g74
(dp1217
sg83
g1202
sg76
(lp1218
g69
(g70
g71
NtRp1219
(dp1220
g74
(dp1221
g82
I4
ssg83
g1215
sg76
(lp1222
g1092
asbasbasbag69
(g85
g71
NtRp1223
(dp1224
g74
(dp1225
sg83
g1045
sg76
(lp1226
g69
(g90
g71
NtRp1227
(dp1228
g74
(dp1229
g94
g95
ssg83
g1223
sg76
(lp1230
S'http_accept'
p1231
asbag69
(g90
g71
NtRp1232
(dp1233
g74
(dp1234
g101
g102
ssg83
g1223
sg76
(lp1235
S':'
asbag69
(g90
g71
NtRp1236
(dp1237
g74
(dp1238
sg83
g1223
sg76
(lp1239
g69
(g70
g71
NtRp1240
(dp1241
g74
(dp1242
g82
I4
ssg83
g1236
sg76
(lp1243
S'*/*'
p1244
asbasbasbag69
(g85
g71
NtRp1245
(dp1246
g74
(dp1247
sg83
g1045
sg76
(lp1248
g69
(g90
g71
NtRp1249
(dp1250
g74
(dp1251
g94
g95
ssg83
g1245
sg76
(lp1252
S'http_accept_charset'
p1253
asbag69
(g90
g71
NtRp1254
(dp1255
g74
(dp1256
g101
g102
ssg83
g1245
sg76
(lp1257
S':'
asbag69
(g90
g71
NtRp1258
(dp1259
g74
(dp1260
sg83
g1245
sg76
(lp1261
g69
(g70
g71
NtRp1262
(dp1263
g74
(dp1264
g82
I4
ssg83
g1258
sg76
(lp1265
S'ISO-8859-1,utf-8;q=0.7,*;q=0.3'
p1266
asbasbasbag69
(g85
g71
NtRp1267
(dp1268
g74
(dp1269
sg83
g1045
sg76
(lp1270
g69
(g90
g71
NtRp1271
(dp1272
g74
(dp1273
g94
g95
ssg83
g1267
sg76
(lp1274
S'http_accept_encoding'
p1275
asbag69
(g90
g71
NtRp1276
(dp1277
g74
(dp1278
g101
g102
ssg83
g1267
sg76
(lp1279
S':'
asbag69
(g90
g71
NtRp1280
(dp1281
g74
(dp1282
sg83
g1267
sg76
(lp1283
g69
(g70
g71
NtRp1284
(dp1285
g74
(dp1286
g82
I4
ssg83
g1280
sg76
(lp1287
S'gzip,deflate,sdch'
p1288
asbasbasbag69
(g85
g71
NtRp1289
(dp1290
g74
(dp1291
sg83
g1045
sg76
(lp1292
g69
(g90
g71
NtRp1293
(dp1294
g74
(dp1295
g94
g95
ssg83
g1289
sg76
(lp1296
S'http_accept_language'
p1297
asbag69
(g90
g71
NtRp1298
(dp1299
g74
(dp1300
g101
g102
ssg83
g1289
sg76
(lp1301
S':'
asbag69
(g90
g71
NtRp1302
(dp1303
g74
(dp1304
sg83
g1289
sg76
(lp1305
g69
(g70
g71
NtRp1306
(dp1307
g74
(dp1308
g82
I4
ssg83
g1302
sg76
(lp1309
S'es-ES,es;q=0.8'
p1310
asbasbasbag69
(g85
g71
NtRp1311
(dp1312
g74
(dp1313
sg83
g1045
sg76
(lp1314
g69
(g90
g71
NtRp1315
(dp1316
g74
(dp1317
g94
g95
ssg83
g1311
sg76
(lp1318
S'http_connection'
p1319
asbag69
(g90
g71
NtRp1320
(dp1321
g74
(dp1322
g101
g102
ssg83
g1311
sg76
(lp1323
S':'
asbag69
(g90
g71
NtRp1324
(dp1325
g74
(dp1326
sg83
g1311
sg76
(lp1327
g69
(g70
g71
NtRp1328
(dp1329
g74
(dp1330
g82
I4
ssg83
g1324
sg76
(lp1331
S'keep-alive'
p1332
asbasbasbag69
(g85
g71
NtRp1333
(dp1334
g74
(dp1335
sg83
g1045
sg76
(lp1336
g69
(g90
g71
NtRp1337
(dp1338
g74
(dp1339
g94
g95
ssg83
g1333
sg76
(lp1340
S'http_cookie'
p1341
asbag69
(g90
g71
NtRp1342
(dp1343
g74
(dp1344
g101
g102
ssg83
g1333
sg76
(lp1345
S':'
asbag69
(g90
g71
NtRp1346
(dp1347
g74
(dp1348
sg83
g1333
sg76
(lp1349
g69
(g70
g71
NtRp1350
(dp1351
g74
(dp1352
g82
I4
ssg83
g1346
sg76
(lp1353
S'session_id_welcome=127.0.0.1-7dbbf1c0-4339-41b2-90c0-6cdd1b8d159f; session_id_admin=127.0.0.1-3ad56f0e-bc14-4410-b678-7c708c9d6393; session_id_fayol=127.0.0.1-4365d02b-8819-47e5-a724-886dfa22cb58; session_id_randomwords=127.0.0.1-0bd8aba9-4c26-4c3e-ba38-4feb8157de7a'
p1354
asbasbasbag69
(g85
g71
NtRp1355
(dp1356
g74
(dp1357
sg83
g1045
sg76
(lp1358
g69
(g90
g71
NtRp1359
(dp1360
g74
(dp1361
g94
g95
ssg83
g1355
sg76
(lp1362
S'http_host'
p1363
asbag69
(g90
g71
NtRp1364
(dp1365
g74
(dp1366
g101
g102
ssg83
g1355
sg76
(lp1367
S':'
asbag69
(g90
g71
NtRp1368
(dp1369
g74
(dp1370
sg83
g1355
sg76
(lp1371
g69
(g70
g71
NtRp1372
(dp1373
g74
(dp1374
g82
I4
ssg83
g1368
sg76
(lp1375
S'web2py'
p1376
asbasbasbag69
(g85
g71
NtRp1377
(dp1378
g74
(dp1379
sg83
g1045
sg76
(lp1380
g69
(g90
g71
NtRp1381
(dp1382
g74
(dp1383
g94
g95
ssg83
g1377
sg76
(lp1384
S'http_origin'
p1385
asbag69
(g90
g71
NtRp1386
(dp1387
g74
(dp1388
g101
g102
ssg83
g1377
sg76
(lp1389
S':'
asbag69
(g90
g71
NtRp1390
(dp1391
g74
(dp1392
sg83
g1377
sg76
(lp1393
g69
(g70
g71
NtRp1394
(dp1395
g74
(dp1396
g82
I4
ssg83
g1390
sg76
(lp1397
S'http://web2py'
p1398
asbasbasbag69
(g85
g71
NtRp1399
(dp1400
g74
(dp1401
sg83
g1045
sg76
(lp1402
g69
(g90
g71
NtRp1403
(dp1404
g74
(dp1405
g94
g95
ssg83
g1399
sg76
(lp1406
S'http_referer'
p1407
asbag69
(g90
g71
NtRp1408
(dp1409
g74
(dp1410
g101
g102
ssg83
g1399
sg76
(lp1411
S':'
asbag69
(g90
g71
NtRp1412
(dp1413
g74
(dp1414
sg83
g1399
sg76
(lp1415
g69
(g70
g71
NtRp1416
(dp1417
g74
(dp1418
g82
I4
ssg83
g1412
sg76
(lp1419
S'http://web2py/randomwords'
p1420
asbasbasbag69
(g85
g71
NtRp1421
(dp1422
g74
(dp1423
sg83
g1045
sg76
(lp1424
g69
(g90
g71
NtRp1425
(dp1426
g74
(dp1427
g94
g95
ssg83
g1421
sg76
(lp1428
S'http_user_agent'
p1429
asbag69
(g90
g71
NtRp1430
(dp1431
g74
(dp1432
g101
g102
ssg83
g1421
sg76
(lp1433
S':'
asbag69
(g90
g71
NtRp1434
(dp1435
g74
(dp1436
sg83
g1421
sg76
(lp1437
g69
(g70
g71
NtRp1438
(dp1439
g74
(dp1440
g82
I4
ssg83
g1434
sg76
(lp1441
S'Mozilla/5.0 (Macintosh; Intel Mac OS X 10_8_2) AppleWebKit/537.4 (KHTML, like Gecko) Chrome/22.0.1229.94 Safari/537.4'
p1442
asbasbasbag69
(g85
g71
NtRp1443
(dp1444
g74
(dp1445
sg83
g1045
sg76
(lp1446
g69
(g90
g71
NtRp1447
(dp1448
g74
(dp1449
g94
g95
ssg83
g1443
sg76
(lp1450
S'http_x_requested_with'
p1451
asbag69
(g90
g71
NtRp1452
(dp1453
g74
(dp1454
g101
g102
ssg83
g1443
sg76
(lp1455
S':'
asbag69
(g90
g71
NtRp1456
(dp1457
g74
(dp1458
sg83
g1443
sg76
(lp1459
g69
(g70
g71
NtRp1460
(dp1461
g74
(dp1462
g82
I4
ssg83
g1456
sg76
(lp1463
S'XMLHttpRequest'
p1464
asbasbasbag69
(g85
g71
NtRp1465
(dp1466
g74
(dp1467
sg83
g1045
sg76
(lp1468
g69
(g90
g71
NtRp1469
(dp1470
g74
(dp1471
g94
g95
ssg83
g1465
sg76
(lp1472
S'is_jython'
p1473
asbag69
(g90
g71
NtRp1474
(dp1475
g74
(dp1476
g101
g102
ssg83
g1465
sg76
(lp1477
S':'
asbag69
(g90
g71
NtRp1478
(dp1479
g74
(dp1480
sg83
g1465
sg76
(lp1481
g69
(g70
g71
NtRp1482
(dp1483
g74
(dp1484
g82
I4
ssg83
g1478
sg76
(lp1485
g1157
asbasbasbag69
(g85
g71
NtRp1486
(dp1487
g74
(dp1488
sg83
g1045
sg76
(lp1489
g69
(g90
g71
NtRp1490
(dp1491
g74
(dp1492
g94
g95
ssg83
g1486
sg76
(lp1493
S'is_pypy'
p1494
asbag69
(g90
g71
NtRp1495
(dp1496
g74
(dp1497
g101
g102
ssg83
g1486
sg76
(lp1498
S':'
asbag69
(g90
g71
NtRp1499
(dp1500
g74
(dp1501
sg83
g1486
sg76
(lp1502
g69
(g70
g71
NtRp1503
(dp1504
g74
(dp1505
g82
I4
ssg83
g1499
sg76
(lp1506
g1157
asbasbasbag69
(g85
g71
NtRp1507
(dp1508
g74
(dp1509
sg83
g1045
sg76
(lp1510
g69
(g90
g71
NtRp1511
(dp1512
g74
(dp1513
g94
g95
ssg83
g1507
sg76
(lp1514
S'mod_wsgi_application_group'
p1515
asbag69
(g90
g71
NtRp1516
(dp1517
g74
(dp1518
g101
g102
ssg83
g1507
sg76
(lp1519
S':'
asbag69
(g90
g71
NtRp1520
(dp1521
g74
(dp1522
sg83
g1507
sg76
(lp1523
g69
(g70
g71
NtRp1524
(dp1525
g74
(dp1526
g82
I4
ssg83
g1520
sg76
(lp1527
S'web2py|'
p1528
asbasbasbag69
(g85
g71
NtRp1529
(dp1530
g74
(dp1531
sg83
g1045
sg76
(lp1532
g69
(g90
g71
NtRp1533
(dp1534
g74
(dp1535
g94
g95
ssg83
g1529
sg76
(lp1536
S'mod_wsgi_callable_object'
p1537
asbag69
(g90
g71
NtRp1538
(dp1539
g74
(dp1540
g101
g102
ssg83
g1529
sg76
(lp1541
S':'
asbag69
(g90
g71
NtRp1542
(dp1543
g74
(dp1544
sg83
g1529
sg76
(lp1545
g69
(g70
g71
NtRp1546
(dp1547
g74
(dp1548
g82
I4
ssg83
g1542
sg76
(lp1549
S'application'
p1550
asbasbasbag69
(g85
g71
NtRp1551
(dp1552
g74
(dp1553
sg83
g1045
sg76
(lp1554
g69
(g90
g71
NtRp1555
(dp1556
g74
(dp1557
g94
g95
ssg83
g1551
sg76
(lp1558
S'mod_wsgi_enable_sendfile'
p1559
asbag69
(g90
g71
NtRp1560
(dp1561
g74
(dp1562
g101
g102
ssg83
g1551
sg76
(lp1563
S':'
asbag69
(g90
g71
NtRp1564
(dp1565
g74
(dp1566
sg83
g1551
sg76
(lp1567
g69
(g70
g71
NtRp1568
(dp1569
g74
(dp1570
g82
I4
ssg83
g1564
sg76
(lp1571
S'0'
asbasbasbag69
(g85
g71
NtRp1572
(dp1573
g74
(dp1574
sg83
g1045
sg76
(lp1575
g69
(g90
g71
NtRp1576
(dp1577
g74
(dp1578
g94
g95
ssg83
g1572
sg76
(lp1579
S'mod_wsgi_handler_script'
p1580
asbag69
(g90
g71
NtRp1581
(dp1582
g74
(dp1583
g101
g102
ssg83
g1572
sg76
(lp1584
S':'
asbag69
(g90
g71
NtRp1585
(dp1586
g74
(dp1587
sg83
g1572
sg76
(lp1588
g69
(g70
g71
NtRp1589
(dp1590
g74
(dp1591
g82
I4
ssg83
g1585
sg76
(lp1592
S''
asbasbasbag69
(g85
g71
NtRp1593
(dp1594
g74
(dp1595
sg83
g1045
sg76
(lp1596
g69
(g90
g71
NtRp1597
(dp1598
g74
(dp1599
g94
g95
ssg83
g1593
sg76
(lp1600
S'mod_wsgi_input_chunked'
p1601
asbag69
(g90
g71
NtRp1602
(dp1603
g74
(dp1604
g101
g102
ssg83
g1593
sg76
(lp1605
S':'
asbag69
(g90
g71
NtRp1606
(dp1607
g74
(dp1608
sg83
g1593
sg76
(lp1609
g69
(g70
g71
NtRp1610
(dp1611
g74
(dp1612
g82
I4
ssg83
g1606
sg76
(lp1613
S'0'
asbasbasbag69
(g85
g71
NtRp1614
(dp1615
g74
(dp1616
sg83
g1045
sg76
(lp1617
g69
(g90
g71
NtRp1618
(dp1619
g74
(dp1620
g94
g95
ssg83
g1614
sg76
(lp1621
S'mod_wsgi_listener_host'
p1622
asbag69
(g90
g71
NtRp1623
(dp1624
g74
(dp1625
g101
g102
ssg83
g1614
sg76
(lp1626
S':'
asbag69
(g90
g71
NtRp1627
(dp1628
g74
(dp1629
sg83
g1614
sg76
(lp1630
g69
(g70
g71
NtRp1631
(dp1632
g74
(dp1633
g82
I4
ssg83
g1627
sg76
(lp1634
S''
asbasbasbag69
(g85
g71
NtRp1635
(dp1636
g74
(dp1637
sg83
g1045
sg76
(lp1638
g69
(g90
g71
NtRp1639
(dp1640
g74
(dp1641
g94
g95
ssg83
g1635
sg76
(lp1642
S'mod_wsgi_listener_port'
p1643
asbag69
(g90
g71
NtRp1644
(dp1645
g74
(dp1646
g101
g102
ssg83
g1635
sg76
(lp1647
S':'
asbag69
(g90
g71
NtRp1648
(dp1649
g74
(dp1650
sg83
g1635
sg76
(lp1651
g69
(g70
g71
NtRp1652
(dp1653
g74
(dp1654
g82
I4
ssg83
g1648
sg76
(lp1655
S'80'
p1656
asbasbasbag69
(g85
g71
NtRp1657
(dp1658
g74
(dp1659
sg83
g1045
sg76
(lp1660
g69
(g90
g71
NtRp1661
(dp1662
g74
(dp1663
g94
g95
ssg83
g1657
sg76
(lp1664
S'mod_wsgi_process_group'
p1665
asbag69
(g90
g71
NtRp1666
(dp1667
g74
(dp1668
g101
g102
ssg83
g1657
sg76
(lp1669
S':'
asbag69
(g90
g71
NtRp1670
(dp1671
g74
(dp1672
sg83
g1657
sg76
(lp1673
g69
(g70
g71
NtRp1674
(dp1675
g74
(dp1676
g82
I4
ssg83
g1670
sg76
(lp1677
S''
asbasbasbag69
(g85
g71
NtRp1678
(dp1679
g74
(dp1680
sg83
g1045
sg76
(lp1681
g69
(g90
g71
NtRp1682
(dp1683
g74
(dp1684
g94
g95
ssg83
g1678
sg76
(lp1685
S'mod_wsgi_queue_start'
p1686
asbag69
(g90
g71
NtRp1687
(dp1688
g74
(dp1689
g101
g102
ssg83
g1678
sg76
(lp1690
S':'
asbag69
(g90
g71
NtRp1691
(dp1692
g74
(dp1693
sg83
g1678
sg76
(lp1694
g69
(g70
g71
NtRp1695
(dp1696
g74
(dp1697
g82
I4
ssg83
g1691
sg76
(lp1698
S'1351060094991064'
p1699
asbasbasbag69
(g85
g71
NtRp1700
(dp1701
g74
(dp1702
sg83
g1045
sg76
(lp1703
g69
(g90
g71
NtRp1704
(dp1705
g74
(dp1706
g94
g95
ssg83
g1700
sg76
(lp1707
S'mod_wsgi_request_handler'
p1708
asbag69
(g90
g71
NtRp1709
(dp1710
g74
(dp1711
g101
g102
ssg83
g1700
sg76
(lp1712
S':'
asbag69
(g90
g71
NtRp1713
(dp1714
g74
(dp1715
sg83
g1700
sg76
(lp1716
g69
(g70
g71
NtRp1717
(dp1718
g74
(dp1719
g82
I4
ssg83
g1713
sg76
(lp1720
S'wsgi-script'
p1721
asbasbasbag69
(g85
g71
NtRp1722
(dp1723
g74
(dp1724
sg83
g1045
sg76
(lp1725
g69
(g90
g71
NtRp1726
(dp1727
g74
(dp1728
g94
g95
ssg83
g1722
sg76
(lp1729
S'mod_wsgi_script_reloading'
p1730
asbag69
(g90
g71
NtRp1731
(dp1732
g74
(dp1733
g101
g102
ssg83
g1722
sg76
(lp1734
S':'
asbag69
(g90
g71
NtRp1735
(dp1736
g74
(dp1737
sg83
g1722
sg76
(lp1738
g69
(g70
g71
NtRp1739
(dp1740
g74
(dp1741
g82
I4
ssg83
g1735
sg76
(lp1742
S'1'
asbasbasbag69
(g85
g71
NtRp1743
(dp1744
g74
(dp1745
sg83
g1045
sg76
(lp1746
g69
(g90
g71
NtRp1747
(dp1748
g74
(dp1749
g94
g95
ssg83
g1743
sg76
(lp1750
S'mod_wsgi_version'
p1751
asbag69
(g90
g71
NtRp1752
(dp1753
g74
(dp1754
g101
g102
ssg83
g1743
sg76
(lp1755
S':'
asbag69
(g90
g71
NtRp1756
(dp1757
g74
(dp1758
sg83
g1743
sg76
(lp1759
g69
(g70
g71
NtRp1760
(dp1761
g74
(dp1762
g82
I4
ssg83
g1756
sg76
(lp1763
g69
(g78
g71
NtRp1764
(dp1765
g74
(dp1766
g82
I3
ssg83
Nsg76
(lp1767
g69
(g85
g71
NtRp1768
(dp1769
g74
(dp1770
sg83
g1764
sg76
(lp1771
g69
(g90
g71
NtRp1772
(dp1773
g74
(dp1774
sg83
g1768
sg76
(lp1775
g69
(g70
g71
NtRp1776
(dp1777
g74
(dp1778
g82
I3
ssg83
g1772
sg76
(lp1779
S'3'
asbasbasbag69
(g85
g71
NtRp1780
(dp1781
g74
(dp1782
sg83
g1764
sg76
(lp1783
g69
(g90
g71
NtRp1784
(dp1785
g74
(dp1786
sg83
g1780
sg76
(lp1787
g69
(g70
g71
NtRp1788
(dp1789
g74
(dp1790
g82
I3
ssg83
g1784
sg76
(lp1791
S'4'
asbasbasbasbasbasbasbag69
(g85
g71
NtRp1792
(dp1793
g74
(dp1794
sg83
g1045
sg76
(lp1795
g69
(g90
g71
NtRp1796
(dp1797
g74
(dp1798
g94
g95
ssg83
g1792
sg76
(lp1799
S'path_info'
p1800
asbag69
(g90
g71
NtRp1801
(dp1802
g74
(dp1803
g101
g102
ssg83
g1792
sg76
(lp1804
S':'
asbag69
(g90
g71
NtRp1805
(dp1806
g74
(dp1807
sg83
g1792
sg76
(lp1808
g69
(g70
g71
NtRp1809
(dp1810
g74
(dp1811
g82
I4
ssg83
g1805
sg76
(lp1812
S'/randomwords/default/data'
p1813
asbasbasbag69
(g85
g71
NtRp1814
(dp1815
g74
(dp1816
sg83
g1045
sg76
(lp1817
g69
(g90
g71
NtRp1818
(dp1819
g74
(dp1820
g94
g95
ssg83
g1814
sg76
(lp1821
S'path_translated'
p1822
asbag69
(g90
g71
NtRp1823
(dp1824
g74
(dp1825
g101
g102
ssg83
g1814
sg76
(lp1826
S':'
asbag69
(g90
g71
NtRp1827
(dp1828
g74
(dp1829
sg83
g1814
sg76
(lp1830
g69
(g70
g71
NtRp1831
(dp1832
g74
(dp1833
g82
I4
ssg83
g1827
sg76
(lp1834
S'/Users/joselara/www/web2py/wsgihandler.py/randomwords/default/data'
p1835
asbasbasbag69
(g85
g71
NtRp1836
(dp1837
g74
(dp1838
sg83
g1045
sg76
(lp1839
g69
(g90
g71
NtRp1840
(dp1841
g74
(dp1842
g94
g95
ssg83
g1836
sg76
(lp1843
S'query_string'
p1844
asbag69
(g90
g71
NtRp1845
(dp1846
g74
(dp1847
g101
g102
ssg83
g1836
sg76
(lp1848
S':'
asbag69
(g90
g71
NtRp1849
(dp1850
g74
(dp1851
sg83
g1836
sg76
(lp1852
g69
(g70
g71
NtRp1853
(dp1854
g74
(dp1855
g82
I4
ssg83
g1849
sg76
(lp1856
S''
asbasbasbag69
(g85
g71
NtRp1857
(dp1858
g74
(dp1859
sg83
g1045
sg76
(lp1860
g69
(g90
g71
NtRp1861
(dp1862
g74
(dp1863
g94
g95
ssg83
g1857
sg76
(lp1864
S'remote_addr'
p1865
asbag69
(g90
g71
NtRp1866
(dp1867
g74
(dp1868
g101
g102
ssg83
g1857
sg76
(lp1869
S':'
asbag69
(g90
g71
NtRp1870
(dp1871
g74
(dp1872
sg83
g1857
sg76
(lp1873
g69
(g70
g71
NtRp1874
(dp1875
g74
(dp1876
g82
I4
ssg83
g1870
sg76
(lp1877
g224
asbasbasbag69
(g85
g71
NtRp1878
(dp1879
g74
(dp1880
sg83
g1045
sg76
(lp1881
g69
(g90
g71
NtRp1882
(dp1883
g74
(dp1884
g94
g95
ssg83
g1878
sg76
(lp1885
S'remote_port'
p1886
asbag69
(g90
g71
NtRp1887
(dp1888
g74
(dp1889
g101
g102
ssg83
g1878
sg76
(lp1890
S':'
asbag69
(g90
g71
NtRp1891
(dp1892
g74
(dp1893
sg83
g1878
sg76
(lp1894
g69
(g70
g71
NtRp1895
(dp1896
g74
(dp1897
g82
I4
ssg83
g1891
sg76
(lp1898
S'51928'
p1899
asbasbasbag69
(g85
g71
NtRp1900
(dp1901
g74
(dp1902
sg83
g1045
sg76
(lp1903
g69
(g90
g71
NtRp1904
(dp1905
g74
(dp1906
g94
g95
ssg83
g1900
sg76
(lp1907
S'request_method'
p1908
asbag69
(g90
g71
NtRp1909
(dp1910
g74
(dp1911
g101
g102
ssg83
g1900
sg76
(lp1912
S':'
asbag69
(g90
g71
NtRp1913
(dp1914
g74
(dp1915
sg83
g1900
sg76
(lp1916
g69
(g70
g71
NtRp1917
(dp1918
g74
(dp1919
g82
I4
ssg83
g1913
sg76
(lp1920
S'POST'
p1921
asbasbasbag69
(g85
g71
NtRp1922
(dp1923
g74
(dp1924
sg83
g1045
sg76
(lp1925
g69
(g90
g71
NtRp1926
(dp1927
g74
(dp1928
g94
g95
ssg83
g1922
sg76
(lp1929
S'request_uri'
p1930
asbag69
(g90
g71
NtRp1931
(dp1932
g74
(dp1933
g101
g102
ssg83
g1922
sg76
(lp1934
S':'
asbag69
(g90
g71
NtRp1935
(dp1936
g74
(dp1937
sg83
g1922
sg76
(lp1938
g69
(g70
g71
NtRp1939
(dp1940
g74
(dp1941
g82
I4
ssg83
g1935
sg76
(lp1942
S'/randomwords/default/data'
p1943
asbasbasbag69
(g85
g71
NtRp1944
(dp1945
g74
(dp1946
sg83
g1045
sg76
(lp1947
g69
(g90
g71
NtRp1948
(dp1949
g74
(dp1950
g94
g95
ssg83
g1944
sg76
(lp1951
S'script_filename'
p1952
asbag69
(g90
g71
NtRp1953
(dp1954
g74
(dp1955
g101
g102
ssg83
g1944
sg76
(lp1956
S':'
asbag69
(g90
g71
NtRp1957
(dp1958
g74
(dp1959
sg83
g1944
sg76
(lp1960
g69
(g70
g71
NtRp1961
(dp1962
g74
(dp1963
g82
I4
ssg83
g1957
sg76
(lp1964
S'/Users/joselara/www/web2py/wsgihandler.py'
p1965
asbasbasbag69
(g85
g71
NtRp1966
(dp1967
g74
(dp1968
sg83
g1045
sg76
(lp1969
g69
(g90
g71
NtRp1970
(dp1971
g74
(dp1972
g94
g95
ssg83
g1966
sg76
(lp1973
S'script_name'
p1974
asbag69
(g90
g71
NtRp1975
(dp1976
g74
(dp1977
g101
g102
ssg83
g1966
sg76
(lp1978
S':'
asbag69
(g90
g71
NtRp1979
(dp1980
g74
(dp1981
sg83
g1966
sg76
(lp1982
g69
(g70
g71
NtRp1983
(dp1984
g74
(dp1985
g82
I4
ssg83
g1979
sg76
(lp1986
S''
asbasbasbag69
(g85
g71
NtRp1987
(dp1988
g74
(dp1989
sg83
g1045
sg76
(lp1990
g69
(g90
g71
NtRp1991
(dp1992
g74
(dp1993
g94
g95
ssg83
g1987
sg76
(lp1994
S'server_addr'
p1995
asbag69
(g90
g71
NtRp1996
(dp1997
g74
(dp1998
g101
g102
ssg83
g1987
sg76
(lp1999
S':'
asbag69
(g90
g71
NtRp2000
(dp2001
g74
(dp2002
sg83
g1987
sg76
(lp2003
g69
(g70
g71
NtRp2004
(dp2005
g74
(dp2006
g82
I4
ssg83
g2000
sg76
(lp2007
S'127.0.0.1'
p2008
asbasbasbag69
(g85
g71
NtRp2009
(dp2010
g74
(dp2011
sg83
g1045
sg76
(lp2012
g69
(g90
g71
NtRp2013
(dp2014
g74
(dp2015
g94
g95
ssg83
g2009
sg76
(lp2016
S'server_admin'
p2017
asbag69
(g90
g71
NtRp2018
(dp2019
g74
(dp2020
g101
g102
ssg83
g2009
sg76
(lp2021
S':'
asbag69
(g90
g71
NtRp2022
(dp2023
g74
(dp2024
sg83
g2009
sg76
(lp2025
g69
(g70
g71
NtRp2026
(dp2027
g74
(dp2028
g82
I4
ssg83
g2022
sg76
(lp2029
S'joselara@beardcode.mx'
p2030
asbasbasbag69
(g85
g71
NtRp2031
(dp2032
g74
(dp2033
sg83
g1045
sg76
(lp2034
g69
(g90
g71
NtRp2035
(dp2036
g74
(dp2037
g94
g95
ssg83
g2031
sg76
(lp2038
S'server_name'
p2039
asbag69
(g90
g71
NtRp2040
(dp2041
g74
(dp2042
g101
g102
ssg83
g2031
sg76
(lp2043
S':'
asbag69
(g90
g71
NtRp2044
(dp2045
g74
(dp2046
sg83
g2031
sg76
(lp2047
g69
(g70
g71
NtRp2048
(dp2049
g74
(dp2050
g82
I4
ssg83
g2044
sg76
(lp2051
S'web2py'
p2052
asbasbasbag69
(g85
g71
NtRp2053
(dp2054
g74
(dp2055
sg83
g1045
sg76
(lp2056
g69
(g90
g71
NtRp2057
(dp2058
g74
(dp2059
g94
g95
ssg83
g2053
sg76
(lp2060
S'server_port'
p2061
asbag69
(g90
g71
NtRp2062
(dp2063
g74
(dp2064
g101
g102
ssg83
g2053
sg76
(lp2065
S':'
asbag69
(g90
g71
NtRp2066
(dp2067
g74
(dp2068
sg83
g2053
sg76
(lp2069
g69
(g70
g71
NtRp2070
(dp2071
g74
(dp2072
g82
I4
ssg83
g2066
sg76
(lp2073
S'80'
p2074
asbasbasbag69
(g85
g71
NtRp2075
(dp2076
g74
(dp2077
sg83
g1045
sg76
(lp2078
g69
(g90
g71
NtRp2079
(dp2080
g74
(dp2081
g94
g95
ssg83
g2075
sg76
(lp2082
S'server_protocol'
p2083
asbag69
(g90
g71
NtRp2084
(dp2085
g74
(dp2086
g101
g102
ssg83
g2075
sg76
(lp2087
S':'
asbag69
(g90
g71
NtRp2088
(dp2089
g74
(dp2090
sg83
g2075
sg76
(lp2091
g69
(g70
g71
NtRp2092
(dp2093
g74
(dp2094
g82
I4
ssg83
g2088
sg76
(lp2095
S'HTTP/1.1'
p2096
asbasbasbag69
(g85
g71
NtRp2097
(dp2098
g74
(dp2099
sg83
g1045
sg76
(lp2100
g69
(g90
g71
NtRp2101
(dp2102
g74
(dp2103
g94
g95
ssg83
g2097
sg76
(lp2104
S'server_signature'
p2105
asbag69
(g90
g71
NtRp2106
(dp2107
g74
(dp2108
g101
g102
ssg83
g2097
sg76
(lp2109
S':'
asbag69
(g90
g71
NtRp2110
(dp2111
g74
(dp2112
sg83
g2097
sg76
(lp2113
g69
(g70
g71
NtRp2114
(dp2115
g74
(dp2116
g82
I4
ssg83
g2110
sg76
(lp2117
S''
asbasbasbag69
(g85
g71
NtRp2118
(dp2119
g74
(dp2120
sg83
g1045
sg76
(lp2121
g69
(g90
g71
NtRp2122
(dp2123
g74
(dp2124
g94
g95
ssg83
g2118
sg76
(lp2125
S'server_software'
p2126
asbag69
(g90
g71
NtRp2127
(dp2128
g74
(dp2129
g101
g102
ssg83
g2118
sg76
(lp2130
S':'
asbag69
(g90
g71
NtRp2131
(dp2132
g74
(dp2133
sg83
g2118
sg76
(lp2134
g69
(g70
g71
NtRp2135
(dp2136
g74
(dp2137
g82
I4
ssg83
g2131
sg76
(lp2138
S'Apache/2.2.22 (Unix) mod_wsgi/3.4 Python/2.7.2 PHP/5.3.15 with Suhosin-Patch mod_ssl/2.2.22 OpenSSL/0.9.8r DAV/2 mod_perl/2.0.5 Perl/v5.12.4'
p2139
asbasbasbag69
(g85
g71
NtRp2140
(dp2141
g74
(dp2142
sg83
g1045
sg76
(lp2143
g69
(g90
g71
NtRp2144
(dp2145
g74
(dp2146
g94
g95
ssg83
g2140
sg76
(lp2147
S'web2py_path'
p2148
asbag69
(g90
g71
NtRp2149
(dp2150
g74
(dp2151
g101
g102
ssg83
g2140
sg76
(lp2152
S':'
asbag69
(g90
g71
NtRp2153
(dp2154
g74
(dp2155
sg83
g2140
sg76
(lp2156
g69
(g70
g71
NtRp2157
(dp2158
g74
(dp2159
g82
I4
ssg83
g2153
sg76
(lp2160
g1092
asbasbasbag69
(g85
g71
NtRp2161
(dp2162
g74
(dp2163
sg83
g1045
sg76
(lp2164
g69
(g90
g71
NtRp2165
(dp2166
g74
(dp2167
g94
g95
ssg83
g2161
sg76
(lp2168
S'web2py_version'
p2169
asbag69
(g90
g71
NtRp2170
(dp2171
g74
(dp2172
g101
g102
ssg83
g2161
sg76
(lp2173
S':'
asbag69
(g90
g71
NtRp2174
(dp2175
g74
(dp2176
sg83
g2161
sg76
(lp2177
g69
(g70
g71
NtRp2178
(dp2179
g74
(dp2180
g82
I4
ssg83
g2174
sg76
(lp2181
g69
(g78
g71
NtRp2182
(dp2183
g74
(dp2184
g82
I3
ssg83
Nsg76
(lp2185
g69
(g85
g71
NtRp2186
(dp2187
g74
(dp2188
sg83
g2182
sg76
(lp2189
g69
(g90
g71
NtRp2190
(dp2191
g74
(dp2192
sg83
g2186
sg76
(lp2193
g69
(g70
g71
NtRp2194
(dp2195
g74
(dp2196
g82
I3
ssg83
g2190
sg76
(lp2197
S'2'
asbasbasbag69
(g85
g71
NtRp2198
(dp2199
g74
(dp2200
sg83
g2182
sg76
(lp2201
g69
(g90
g71
NtRp2202
(dp2203
g74
(dp2204
sg83
g2198
sg76
(lp2205
g69
(g70
g71
NtRp2206
(dp2207
g74
(dp2208
g82
I3
ssg83
g2202
sg76
(lp2209
S'0'
asbasbasbag69
(g85
g71
NtRp2210
(dp2211
g74
(dp2212
sg83
g2182
sg76
(lp2213
g69
(g90
g71
NtRp2214
(dp2215
g74
(dp2216
sg83
g2210
sg76
(lp2217
g69
(g70
g71
NtRp2218
(dp2219
g74
(dp2220
g82
I3
ssg83
g2214
sg76
(lp2221
S'9'
asbasbasbag69
(g85
g71
NtRp2222
(dp2223
g74
(dp2224
sg83
g2182
sg76
(lp2225
g69
(g90
g71
NtRp2226
(dp2227
g74
(dp2228
sg83
g2222
sg76
(lp2229
g69
(g70
g71
NtRp2230
(dp2231
g74
(dp2232
g82
I3
ssg83
g2226
sg76
(lp2233
S'datetime.datetime(2012, 9, 13, 23, 51, 30)'
p2234
asbasbasbag69
(g85
g71
NtRp2235
(dp2236
g74
(dp2237
sg83
g2182
sg76
(lp2238
g69
(g90
g71
NtRp2239
(dp2240
g74
(dp2241
sg83
g2235
sg76
(lp2242
g69
(g70
g71
NtRp2243
(dp2244
g74
(dp2245
g82
I3
ssg83
g2239
sg76
(lp2246
S'stable'
p2247
asbasbasbasbasbasbasbag69
(g85
g71
NtRp2248
(dp2249
g74
(dp2250
sg83
g1045
sg76
(lp2251
g69
(g90
g71
NtRp2252
(dp2253
g74
(dp2254
g94
g95
ssg83
g2248
sg76
(lp2255
S'wsgi_errors'
p2256
asbag69
(g90
g71
NtRp2257
(dp2258
g74
(dp2259
g101
g102
ssg83
g2248
sg76
(lp2260
S':'
asbag69
(g90
g71
NtRp2261
(dp2262
g74
(dp2263
sg83
g2248
sg76
(lp2264
g69
(g70
g71
NtRp2265
(dp2266
g74
(dp2267
g82
I4
ssg83
g2261
sg76
(lp2268
S'<mod_wsgi.Log object at 0x10d86b930>'
p2269
asbasbasbag69
(g85
g71
NtRp2270
(dp2271
g74
(dp2272
sg83
g1045
sg76
(lp2273
g69
(g90
g71
NtRp2274
(dp2275
g74
(dp2276
g94
g95
ssg83
g2270
sg76
(lp2277
S'wsgi_file_wrapper'
p2278
asbag69
(g90
g71
NtRp2279
(dp2280
g74
(dp2281
g101
g102
ssg83
g2270
sg76
(lp2282
S':'
asbag69
(g90
g71
NtRp2283
(dp2284
g74
(dp2285
sg83
g2270
sg76
(lp2286
g69
(g70
g71
NtRp2287
(dp2288
g74
(dp2289
g82
I4
ssg83
g2283
sg76
(lp2290
S'<built-in method file_wrapper of mod_wsgi.Adapter object at 0x10d46eaf8>'
p2291
asbasbasbag69
(g85
g71
NtRp2292
(dp2293
g74
(dp2294
sg83
g1045
sg76
(lp2295
g69
(g90
g71
NtRp2296
(dp2297
g74
(dp2298
g94
g95
ssg83
g2292
sg76
(lp2299
S'wsgi_input'
p2300
asbag69
(g90
g71
NtRp2301
(dp2302
g74
(dp2303
g101
g102
ssg83
g2292
sg76
(lp2304
S':'
asbag69
(g90
g71
NtRp2305
(dp2306
g74
(dp2307
sg83
g2292
sg76
(lp2308
g69
(g70
g71
NtRp2309
(dp2310
g74
(dp2311
g82
I4
ssg83
g2305
sg76
(lp2312
S'<mod_wsgi.Input object at 0x10d86b8b0>'
p2313
asbasbasbag69
(g85
g71
NtRp2314
(dp2315
g74
(dp2316
sg83
g1045
sg76
(lp2317
g69
(g90
g71
NtRp2318
(dp2319
g74
(dp2320
g94
g95
ssg83
g2314
sg76
(lp2321
S'wsgi_multiprocess'
p2322
asbag69
(g90
g71
NtRp2323
(dp2324
g74
(dp2325
g101
g102
ssg83
g2314
sg76
(lp2326
S':'
asbag69
(g90
g71
NtRp2327
(dp2328
g74
(dp2329
sg83
g2314
sg76
(lp2330
g69
(g70
g71
NtRp2331
(dp2332
g74
(dp2333
g82
I4
ssg83
g2327
sg76
(lp2334
g112
asbasbasbag69
(g85
g71
NtRp2335
(dp2336
g74
(dp2337
sg83
g1045
sg76
(lp2338
g69
(g90
g71
NtRp2339
(dp2340
g74
(dp2341
g94
g95
ssg83
g2335
sg76
(lp2342
S'wsgi_multithread'
p2343
asbag69
(g90
g71
NtRp2344
(dp2345
g74
(dp2346
g101
g102
ssg83
g2335
sg76
(lp2347
S':'
asbag69
(g90
g71
NtRp2348
(dp2349
g74
(dp2350
sg83
g2335
sg76
(lp2351
g69
(g70
g71
NtRp2352
(dp2353
g74
(dp2354
g82
I4
ssg83
g2348
sg76
(lp2355
g1157
asbasbasbag69
(g85
g71
NtRp2356
(dp2357
g74
(dp2358
sg83
g1045
sg76
(lp2359
g69
(g90
g71
NtRp2360
(dp2361
g74
(dp2362
g94
g95
ssg83
g2356
sg76
(lp2363
S'wsgi_run_once'
p2364
asbag69
(g90
g71
NtRp2365
(dp2366
g74
(dp2367
g101
g102
ssg83
g2356
sg76
(lp2368
S':'
asbag69
(g90
g71
NtRp2369
(dp2370
g74
(dp2371
sg83
g2356
sg76
(lp2372
g69
(g70
g71
NtRp2373
(dp2374
g74
(dp2375
g82
I4
ssg83
g2369
sg76
(lp2376
g1157
asbasbasbag69
(g85
g71
NtRp2377
(dp2378
g74
(dp2379
sg83
g1045
sg76
(lp2380
g69
(g90
g71
NtRp2381
(dp2382
g74
(dp2383
g94
g95
ssg83
g2377
sg76
(lp2384
S'wsgi_url_scheme'
p2385
asbag69
(g90
g71
NtRp2386
(dp2387
g74
(dp2388
g101
g102
ssg83
g2377
sg76
(lp2389
S':'
asbag69
(g90
g71
NtRp2390
(dp2391
g74
(dp2392
sg83
g2377
sg76
(lp2393
g69
(g70
g71
NtRp2394
(dp2395
g74
(dp2396
g82
I4
ssg83
g2390
sg76
(lp2397
S'http'
p2398
asbasbasbag69
(g85
g71
NtRp2399
(dp2400
g74
(dp2401
sg83
g1045
sg76
(lp2402
g69
(g90
g71
NtRp2403
(dp2404
g74
(dp2405
g94
g95
ssg83
g2399
sg76
(lp2406
S'wsgi_version'
p2407
asbag69
(g90
g71
NtRp2408
(dp2409
g74
(dp2410
g101
g102
ssg83
g2399
sg76
(lp2411
S':'
asbag69
(g90
g71
NtRp2412
(dp2413
g74
(dp2414
sg83
g2399
sg76
(lp2415
g69
(g70
g71
NtRp2416
(dp2417
g74
(dp2418
g82
I4
ssg83
g2412
sg76
(lp2419
g69
(g78
g71
NtRp2420
(dp2421
g74
(dp2422
g82
I3
ssg83
Nsg76
(lp2423
g69
(g85
g71
NtRp2424
(dp2425
g74
(dp2426
sg83
g2420
sg76
(lp2427
g69
(g90
g71
NtRp2428
(dp2429
g74
(dp2430
sg83
g2424
sg76
(lp2431
g69
(g70
g71
NtRp2432
(dp2433
g74
(dp2434
g82
I3
ssg83
g2428
sg76
(lp2435
S'1'
asbasbasbag69
(g85
g71
NtRp2436
(dp2437
g74
(dp2438
sg83
g2420
sg76
(lp2439
g69
(g90
g71
NtRp2440
(dp2441
g74
(dp2442
sg83
g2436
sg76
(lp2443
g69
(g70
g71
NtRp2444
(dp2445
g74
(dp2446
g82
I3
ssg83
g2440
sg76
(lp2447
S'0'
asbasbasbasbasbasbasbasbasbasbasbag69
(g85
g71
NtRp2448
(dp2449
g74
(dp2450
sg83
g79
sg76
(lp2451
g69
(g90
g71
NtRp2452
(dp2453
g74
(dp2454
g94
g95
ssg83
g2448
sg76
(lp2455
S'extension'
p2456
asbag69
(g90
g71
NtRp2457
(dp2458
g74
(dp2459
g101
g102
ssg83
g2448
sg76
(lp2460
S':'
asbag69
(g90
g71
NtRp2461
(dp2462
g74
(dp2463
sg83
g2448
sg76
(lp2464
g69
(g70
g71
NtRp2465
(dp2466
g74
(dp2467
g82
I5
ssg83
g2461
sg76
(lp2468
S'html'
p2469
asbasbasbag69
(g85
g71
NtRp2470
(dp2471
g74
(dp2472
sg83
g79
sg76
(lp2473
g69
(g90
g71
NtRp2474
(dp2475
g74
(dp2476
g94
g95
ssg83
g2470
sg76
(lp2477
S'folder'
p2478
asbag69
(g90
g71
NtRp2479
(dp2480
g74
(dp2481
g101
g102
ssg83
g2470
sg76
(lp2482
S':'
asbag69
(g90
g71
NtRp2483
(dp2484
g74
(dp2485
sg83
g2470
sg76
(lp2486
g69
(g70
g71
NtRp2487
(dp2488
g74
(dp2489
g82
I5
ssg83
g2483
sg76
(lp2490
S'/Users/joselara/www/web2py/applications/randomwords/'
p2491
asbasbasbag69
(g85
g71
NtRp2492
(dp2493
g74
(dp2494
sg83
g79
sg76
(lp2495
g69
(g90
g71
NtRp2496
(dp2497
g74
(dp2498
g94
g95
ssg83
g2492
sg76
(lp2499
S'function'
p2500
asbag69
(g90
g71
NtRp2501
(dp2502
g74
(dp2503
g101
g102
ssg83
g2492
sg76
(lp2504
S':'
asbag69
(g90
g71
NtRp2505
(dp2506
g74
(dp2507
sg83
g2492
sg76
(lp2508
g69
(g70
g71
NtRp2509
(dp2510
g74
(dp2511
g82
I5
ssg83
g2505
sg76
(lp2512
S'data'
p2513
asbasbasbag69
(g85
g71
NtRp2514
(dp2515
g74
(dp2516
sg83
g79
sg76
(lp2517
g69
(g90
g71
NtRp2518
(dp2519
g74
(dp2520
g94
g95
ssg83
g2514
sg76
(lp2521
S'get_vars'
p2522
asbag69
(g90
g71
NtRp2523
(dp2524
g74
(dp2525
g101
g102
ssg83
g2514
sg76
(lp2526
S':'
asbag69
(g90
g71
NtRp2527
(dp2528
g74
(dp2529
sg83
g2514
sg76
(lp2530
g69
(g70
g71
NtRp2531
(dp2532
g74
(dp2533
g82
I5
ssg83
g2527
sg76
(lp2534
g69
(g78
g71
NtRp2535
(dp2536
g74
(dp2537
g82
I4
ssg83
Nsg76
(lp2538
sbasbasbasbag69
(g85
g71
NtRp2539
(dp2540
g74
(dp2541
sg83
g79
sg76
(lp2542
g69
(g90
g71
NtRp2543
(dp2544
g74
(dp2545
g94
g95
ssg83
g2539
sg76
(lp2546
S'global_settings'
p2547
asbag69
(g90
g71
NtRp2548
(dp2549
g74
(dp2550
g101
g102
ssg83
g2539
sg76
(lp2551
S':'
asbag69
(g90
g71
NtRp2552
(dp2553
g74
(dp2554
sg83
g2539
sg76
(lp2555
g69
(g70
g71
NtRp2556
(dp2557
g74
(dp2558
g82
I5
ssg83
g2552
sg76
(lp2559
g69
(g78
g71
NtRp2560
(dp2561
g74
(dp2562
g82
I4
ssg83
Nsg76
(lp2563
g69
(g85
g71
NtRp2564
(dp2565
g74
(dp2566
sg83
g2560
sg76
(lp2567
g69
(g90
g71
NtRp2568
(dp2569
g74
(dp2570
g94
g95
ssg83
g2564
sg76
(lp2571
g1057
asbag69
(g90
g71
NtRp2572
(dp2573
g74
(dp2574
g101
g102
ssg83
g2564
sg76
(lp2575
S':'
asbag69
(g90
g71
NtRp2576
(dp2577
g74
(dp2578
sg83
g2564
sg76
(lp2579
g69
(g70
g71
NtRp2580
(dp2581
g74
(dp2582
g82
I4
ssg83
g2576
sg76
(lp2583
S"set(['/Users/joselara/www/web2py/applications/fayol/', '/Users/joselara/www/web2py/applications/randomwords/'])"
p2584
asbasbasbag69
(g85
g71
NtRp2585
(dp2586
g74
(dp2587
sg83
g2560
sg76
(lp2588
g69
(g90
g71
NtRp2589
(dp2590
g74
(dp2591
g94
g95
ssg83
g2585
sg76
(lp2592
g1079
asbag69
(g90
g71
NtRp2593
(dp2594
g74
(dp2595
g101
g102
ssg83
g2585
sg76
(lp2596
S':'
asbag69
(g90
g71
NtRp2597
(dp2598
g74
(dp2599
sg83
g2585
sg76
(lp2600
g69
(g70
g71
NtRp2601
(dp2602
g74
(dp2603
g82
I4
ssg83
g2597
sg76
(lp2604
g1092
asbasbasbag69
(g85
g71
NtRp2605
(dp2606
g74
(dp2607
sg83
g2560
sg76
(lp2608
g69
(g90
g71
NtRp2609
(dp2610
g74
(dp2611
g94
g95
ssg83
g2605
sg76
(lp2612
g1122
asbag69
(g90
g71
NtRp2613
(dp2614
g74
(dp2615
g101
g102
ssg83
g2605
sg76
(lp2616
S':'
asbag69
(g90
g71
NtRp2617
(dp2618
g74
(dp2619
sg83
g2605
sg76
(lp2620
g69
(g70
g71
NtRp2621
(dp2622
g74
(dp2623
g82
I4
ssg83
g2617
sg76
(lp2624
S'set([])'
p2625
asbasbasbag69
(g85
g71
NtRp2626
(dp2627
g74
(dp2628
sg83
g2560
sg76
(lp2629
g69
(g90
g71
NtRp2630
(dp2631
g74
(dp2632
g94
g95
ssg83
g2626
sg76
(lp2633
g1144
asbag69
(g90
g71
NtRp2634
(dp2635
g74
(dp2636
g101
g102
ssg83
g2626
sg76
(lp2637
S':'
asbag69
(g90
g71
NtRp2638
(dp2639
g74
(dp2640
sg83
g2626
sg76
(lp2641
g69
(g70
g71
NtRp2642
(dp2643
g74
(dp2644
g82
I4
ssg83
g2638
sg76
(lp2645
g1157
asbasbasbag69
(g85
g71
NtRp2646
(dp2647
g74
(dp2648
sg83
g2560
sg76
(lp2649
g69
(g90
g71
NtRp2650
(dp2651
g74
(dp2652
g94
g95
ssg83
g2646
sg76
(lp2653
g1210
asbag69
(g90
g71
NtRp2654
(dp2655
g74
(dp2656
g101
g102
ssg83
g2646
sg76
(lp2657
S':'
asbag69
(g90
g71
NtRp2658
(dp2659
g74
(dp2660
sg83
g2646
sg76
(lp2661
g69
(g70
g71
NtRp2662
(dp2663
g74
(dp2664
g82
I4
ssg83
g2658
sg76
(lp2665
g1092
asbasbasbag69
(g85
g71
NtRp2666
(dp2667
g74
(dp2668
sg83
g2560
sg76
(lp2669
g69
(g90
g71
NtRp2670
(dp2671
g74
(dp2672
g94
g95
ssg83
g2666
sg76
(lp2673
g1473
asbag69
(g90
g71
NtRp2674
(dp2675
g74
(dp2676
g101
g102
ssg83
g2666
sg76
(lp2677
S':'
asbag69
(g90
g71
NtRp2678
(dp2679
g74
(dp2680
sg83
g2666
sg76
(lp2681
g69
(g70
g71
NtRp2682
(dp2683
g74
(dp2684
g82
I4
ssg83
g2678
sg76
(lp2685
g1157
asbasbasbag69
(g85
g71
NtRp2686
(dp2687
g74
(dp2688
sg83
g2560
sg76
(lp2689
g69
(g90
g71
NtRp2690
(dp2691
g74
(dp2692
g94
g95
ssg83
g2686
sg76
(lp2693
g1494
asbag69
(g90
g71
NtRp2694
(dp2695
g74
(dp2696
g101
g102
ssg83
g2686
sg76
(lp2697
S':'
asbag69
(g90
g71
NtRp2698
(dp2699
g74
(dp2700
sg83
g2686
sg76
(lp2701
g69
(g70
g71
NtRp2702
(dp2703
g74
(dp2704
g82
I4
ssg83
g2698
sg76
(lp2705
g1157
asbasbasbag69
(g85
g71
NtRp2706
(dp2707
g74
(dp2708
sg83
g2560
sg76
(lp2709
g69
(g90
g71
NtRp2710
(dp2711
g74
(dp2712
g94
g95
ssg83
g2706
sg76
(lp2713
g2169
asbag69
(g90
g71
NtRp2714
(dp2715
g74
(dp2716
g101
g102
ssg83
g2706
sg76
(lp2717
S':'
asbag69
(g90
g71
NtRp2718
(dp2719
g74
(dp2720
sg83
g2706
sg76
(lp2721
g69
(g70
g71
NtRp2722
(dp2723
g74
(dp2724
g82
I4
ssg83
g2718
sg76
(lp2725
g69
(g78
g71
NtRp2726
(dp2727
g74
(dp2728
g82
I3
ssg83
Nsg76
(lp2729
g69
(g85
g71
NtRp2730
(dp2731
g74
(dp2732
sg83
g2726
sg76
(lp2733
g69
(g90
g71
NtRp2734
(dp2735
g74
(dp2736
sg83
g2730
sg76
(lp2737
g69
(g70
g71
NtRp2738
(dp2739
g74
(dp2740
g82
I3
ssg83
g2734
sg76
(lp2741
S'2'
asbasbasbag69
(g85
g71
NtRp2742
(dp2743
g74
(dp2744
sg83
g2726
sg76
(lp2745
g69
(g90
g71
NtRp2746
(dp2747
g74
(dp2748
sg83
g2742
sg76
(lp2749
g69
(g70
g71
NtRp2750
(dp2751
g74
(dp2752
g82
I3
ssg83
g2746
sg76
(lp2753
S'0'
asbasbasbag69
(g85
g71
NtRp2754
(dp2755
g74
(dp2756
sg83
g2726
sg76
(lp2757
g69
(g90
g71
NtRp2758
(dp2759
g74
(dp2760
sg83
g2754
sg76
(lp2761
g69
(g70
g71
NtRp2762
(dp2763
g74
(dp2764
g82
I3
ssg83
g2758
sg76
(lp2765
S'9'
asbasbasbag69
(g85
g71
NtRp2766
(dp2767
g74
(dp2768
sg83
g2726
sg76
(lp2769
g69
(g90
g71
NtRp2770
(dp2771
g74
(dp2772
sg83
g2766
sg76
(lp2773
g69
(g70
g71
NtRp2774
(dp2775
g74
(dp2776
g82
I3
ssg83
g2770
sg76
(lp2777
S'datetime.datetime(2012, 9, 13, 23, 51, 30)'
p2778
asbasbasbag69
(g85
g71
NtRp2779
(dp2780
g74
(dp2781
sg83
g2726
sg76
(lp2782
g69
(g90
g71
NtRp2783
(dp2784
g74
(dp2785
sg83
g2779
sg76
(lp2786
g69
(g70
g71
NtRp2787
(dp2788
g74
(dp2789
g82
I3
ssg83
g2783
sg76
(lp2790
g2247
asbasbasbasbasbasbasbasbasbasbasbag69
(g85
g71
NtRp2791
(dp2792
g74
(dp2793
sg83
g79
sg76
(lp2794
g69
(g90
g71
NtRp2795
(dp2796
g74
(dp2797
g94
g95
ssg83
g2791
sg76
(lp2798
S'is_https'
p2799
asbag69
(g90
g71
NtRp2800
(dp2801
g74
(dp2802
g101
g102
ssg83
g2791
sg76
(lp2803
S':'
asbag69
(g90
g71
NtRp2804
(dp2805
g74
(dp2806
sg83
g2791
sg76
(lp2807
g69
(g70
g71
NtRp2808
(dp2809
g74
(dp2810
g82
I5
ssg83
g2804
sg76
(lp2811
g1157
asbasbasbag69
(g85
g71
NtRp2812
(dp2813
g74
(dp2814
sg83
g79
sg76
(lp2815
g69
(g90
g71
NtRp2816
(dp2817
g74
(dp2818
g94
g95
ssg83
g2812
sg76
(lp2819
S'is_local'
p2820
asbag69
(g90
g71
NtRp2821
(dp2822
g74
(dp2823
g101
g102
ssg83
g2812
sg76
(lp2824
S':'
asbag69
(g90
g71
NtRp2825
(dp2826
g74
(dp2827
sg83
g2812
sg76
(lp2828
g69
(g70
g71
NtRp2829
(dp2830
g74
(dp2831
g82
I5
ssg83
g2825
sg76
(lp2832
g112
asbasbasbag69
(g85
g71
NtRp2833
(dp2834
g74
(dp2835
sg83
g79
sg76
(lp2836
g69
(g90
g71
NtRp2837
(dp2838
g74
(dp2839
g94
g95
ssg83
g2833
sg76
(lp2840
S'is_restful'
p2841
asbag69
(g90
g71
NtRp2842
(dp2843
g74
(dp2844
g101
g102
ssg83
g2833
sg76
(lp2845
S':'
asbag69
(g90
g71
NtRp2846
(dp2847
g74
(dp2848
sg83
g2833
sg76
(lp2849
g69
(g70
g71
NtRp2850
(dp2851
g74
(dp2852
g82
I5
ssg83
g2846
sg76
(lp2853
g1157
asbasbasbag69
(g85
g71
NtRp2854
(dp2855
g74
(dp2856
sg83
g79
sg76
(lp2857
g69
(g90
g71
NtRp2858
(dp2859
g74
(dp2860
g94
g95
ssg83
g2854
sg76
(lp2861
S'now'
p2862
asbag69
(g90
g71
NtRp2863
(dp2864
g74
(dp2865
g101
g102
ssg83
g2854
sg76
(lp2866
S':'
asbag69
(g90
g71
NtRp2867
(dp2868
g74
(dp2869
sg83
g2854
sg76
(lp2870
g69
(g70
g71
NtRp2871
(dp2872
g74
(dp2873
g82
I5
ssg83
g2867
sg76
(lp2874
S'datetime.datetime(2012, 10, 24, 1, 28, 14, 991524)'
p2875
asbasbasbag69
(g85
g71
NtRp2876
(dp2877
g74
(dp2878
sg83
g79
sg76
(lp2879
g69
(g90
g71
NtRp2880
(dp2881
g74
(dp2882
g94
g95
ssg83
g2876
sg76
(lp2883
S'post_vars'
p2884
asbag69
(g90
g71
NtRp2885
(dp2886
g74
(dp2887
g101
g102
ssg83
g2876
sg76
(lp2888
S':'
asbag69
(g90
g71
NtRp2889
(dp2890
g74
(dp2891
sg83
g2876
sg76
(lp2892
g69
(g70
g71
NtRp2893
(dp2894
g74
(dp2895
g82
I5
ssg83
g2889
sg76
(lp2896
g69
(g78
g71
NtRp2897
(dp2898
g74
(dp2899
g82
I4
ssg83
Nsg76
(lp2900
sbasbasbasbag69
(g85
g71
NtRp2901
(dp2902
g74
(dp2903
sg83
g79
sg76
(lp2904
g69
(g90
g71
NtRp2905
(dp2906
g74
(dp2907
g94
g95
ssg83
g2901
sg76
(lp2908
S'raw_args'
p2909
asbag69
(g90
g71
NtRp2910
(dp2911
g74
(dp2912
g101
g102
ssg83
g2901
sg76
(lp2913
S':'
asbag69
(g90
g71
NtRp2914
(dp2915
g74
(dp2916
sg83
g2901
sg76
(lp2917
g69
(g70
g71
NtRp2918
(dp2919
g74
(dp2920
g82
I5
ssg83
g2914
sg76
(lp2921
S'None'
p2922
asbasbasbag69
(g85
g71
NtRp2923
(dp2924
g74
(dp2925
sg83
g79
sg76
(lp2926
g69
(g90
g71
NtRp2927
(dp2928
g74
(dp2929
g94
g95
ssg83
g2923
sg76
(lp2930
S'raw_extension'
p2931
asbag69
(g90
g71
NtRp2932
(dp2933
g74
(dp2934
g101
g102
ssg83
g2923
sg76
(lp2935
S':'
asbag69
(g90
g71
NtRp2936
(dp2937
g74
(dp2938
sg83
g2923
sg76
(lp2939
g69
(g70
g71
NtRp2940
(dp2941
g74
(dp2942
g82
I5
ssg83
g2936
sg76
(lp2943
S'None'
p2944
asbasbasbag69
(g85
g71
NtRp2945
(dp2946
g74
(dp2947
sg83
g79
sg76
(lp2948
g69
(g90
g71
NtRp2949
(dp2950
g74
(dp2951
g94
g95
ssg83
g2945
sg76
(lp2952
S'url'
p2953
asbag69
(g90
g71
NtRp2954
(dp2955
g74
(dp2956
g101
g102
ssg83
g2945
sg76
(lp2957
S':'
asbag69
(g90
g71
NtRp2958
(dp2959
g74
(dp2960
sg83
g2945
sg76
(lp2961
g69
(g70
g71
NtRp2962
(dp2963
g74
(dp2964
g82
I5
ssg83
g2958
sg76
(lp2965
g1813
asbasbasbag69
(g85
g71
NtRp2966
(dp2967
g74
(dp2968
sg83
g79
sg76
(lp2969
g69
(g90
g71
NtRp2970
(dp2971
g74
(dp2972
g94
g95
ssg83
g2966
sg76
(lp2973
S'utcnow'
p2974
asbag69
(g90
g71
NtRp2975
(dp2976
g74
(dp2977
g101
g102
ssg83
g2966
sg76
(lp2978
S':'
asbag69
(g90
g71
NtRp2979
(dp2980
g74
(dp2981
sg83
g2966
sg76
(lp2982
g69
(g70
g71
NtRp2983
(dp2984
g74
(dp2985
g82
I5
ssg83
g2979
sg76
(lp2986
S'datetime.datetime(2012, 10, 24, 6, 28, 14, 991617)'
p2987
asbasbasbag69
(g85
g71
NtRp2988
(dp2989
g74
(dp2990
sg83
g79
sg76
(lp2991
g69
(g90
g71
NtRp2992
(dp2993
g74
(dp2994
g94
g95
ssg83
g2988
sg76
(lp2995
S'uuid'
p2996
asbag69
(g90
g71
NtRp2997
(dp2998
g74
(dp2999
g101
g102
ssg83
g2988
sg76
(lp3000
S':'
asbag69
(g90
g71
NtRp3001
(dp3002
g74
(dp3003
sg83
g2988
sg76
(lp3004
g69
(g70
g71
NtRp3005
(dp3006
g74
(dp3007
g82
I5
ssg83
g3001
sg76
(lp3008
S'randomwords/127.0.0.1.2012-10-24.01-28-14.008745f1-d6b9-4749-8a1a-69956ef51dd9'
p3009
asbasbasbag69
(g85
g71
NtRp3010
(dp3011
g74
(dp3012
sg83
g79
sg76
(lp3013
g69
(g90
g71
NtRp3014
(dp3015
g74
(dp3016
g94
g95
ssg83
g3010
sg76
(lp3017
S'vars'
p3018
asbag69
(g90
g71
NtRp3019
(dp3020
g74
(dp3021
g101
g102
ssg83
g3010
sg76
(lp3022
S':'
asbag69
(g90
g71
NtRp3023
(dp3024
g74
(dp3025
sg83
g3010
sg76
(lp3026
g69
(g70
g71
NtRp3027
(dp3028
g74
(dp3029
g82
I5
ssg83
g3023
sg76
(lp3030
g69
(g78
g71
NtRp3031
(dp3032
g74
(dp3033
g82
I4
ssg83
Nsg76
(lp3034
sbasbasbasbag69
(g85
g71
NtRp3035
(dp3036
g74
(dp3037
sg83
g79
sg76
(lp3038
g69
(g90
g71
NtRp3039
(dp3040
g74
(dp3041
g94
g95
ssg83
g3035
sg76
(lp3042
S'wsgi'
p3043
asbag69
(g90
g71
NtRp3044
(dp3045
g74
(dp3046
g101
g102
ssg83
g3035
sg76
(lp3047
S':'
asbag69
(g90
g71
NtRp3048
(dp3049
g74
(dp3050
sg83
g3035
sg76
(lp3051
g69
(g70
g71
NtRp3052
(dp3053
g74
(dp3054
g82
I5
ssg83
g3048
sg76
(lp3055
g69
(g78
g71
NtRp3056
(dp3057
g74
(dp3058
g82
I4
ssg83
Nsg76
(lp3059
g69
(g85
g71
NtRp3060
(dp3061
g74
(dp3062
sg83
g3056
sg76
(lp3063
g69
(g90
g71
NtRp3064
(dp3065
g74
(dp3066
g94
g95
ssg83
g3060
sg76
(lp3067
S'environ'
p3068
asbag69
(g90
g71
NtRp3069
(dp3070
g74
(dp3071
g101
g102
ssg83
g3060
sg76
(lp3072
S':'
asbag69
(g90
g71
NtRp3073
(dp3074
g74
(dp3075
sg83
g3060
sg76
(lp3076
g69
(g70
g71
NtRp3077
(dp3078
g74
(dp3079
g82
I4
ssg83
g3073
sg76
(lp3080
g69
(g78
g71
NtRp3081
(dp3082
g74
(dp3083
g82
I3
ssg83
Nsg76
(lp3084
g69
(g85
g71
NtRp3085
(dp3086
g74
(dp3087
sg83
g3081
sg76
(lp3088
g69
(g90
g71
NtRp3089
(dp3090
g74
(dp3091
g94
g95
ssg83
g3085
sg76
(lp3092
S'CONTENT_LENGTH'
p3093
asbag69
(g90
g71
NtRp3094
(dp3095
g74
(dp3096
g101
g102
ssg83
g3085
sg76
(lp3097
S':'
asbag69
(g90
g71
NtRp3098
(dp3099
g74
(dp3100
sg83
g3085
sg76
(lp3101
g69
(g70
g71
NtRp3102
(dp3103
g74
(dp3104
g82
I3
ssg83
g3098
sg76
(lp3105
S'0'
asbasbasbag69
(g85
g71
NtRp3106
(dp3107
g74
(dp3108
sg83
g3081
sg76
(lp3109
g69
(g90
g71
NtRp3110
(dp3111
g74
(dp3112
g94
g95
ssg83
g3106
sg76
(lp3113
S'DOCUMENT_ROOT'
p3114
asbag69
(g90
g71
NtRp3115
(dp3116
g74
(dp3117
g101
g102
ssg83
g3106
sg76
(lp3118
S':'
asbag69
(g90
g71
NtRp3119
(dp3120
g74
(dp3121
sg83
g3106
sg76
(lp3122
g69
(g70
g71
NtRp3123
(dp3124
g74
(dp3125
g82
I3
ssg83
g3119
sg76
(lp3126
g1179
asbasbasbag69
(g85
g71
NtRp3127
(dp3128
g74
(dp3129
sg83
g3081
sg76
(lp3130
g69
(g90
g71
NtRp3131
(dp3132
g74
(dp3133
g94
g95
ssg83
g3127
sg76
(lp3134
S'GATEWAY_INTERFACE'
p3135
asbag69
(g90
g71
NtRp3136
(dp3137
g74
(dp3138
g101
g102
ssg83
g3127
sg76
(lp3139
S':'
asbag69
(g90
g71
NtRp3140
(dp3141
g74
(dp3142
sg83
g3127
sg76
(lp3143
g69
(g70
g71
NtRp3144
(dp3145
g74
(dp3146
g82
I3
ssg83
g3140
sg76
(lp3147
g1201
asbasbasbag69
(g85
g71
NtRp3148
(dp3149
g74
(dp3150
sg83
g3081
sg76
(lp3151
g69
(g90
g71
NtRp3152
(dp3153
g74
(dp3154
g94
g95
ssg83
g3148
sg76
(lp3155
S'HTTP_ACCEPT'
p3156
asbag69
(g90
g71
NtRp3157
(dp3158
g74
(dp3159
g101
g102
ssg83
g3148
sg76
(lp3160
S':'
asbag69
(g90
g71
NtRp3161
(dp3162
g74
(dp3163
sg83
g3148
sg76
(lp3164
g69
(g70
g71
NtRp3165
(dp3166
g74
(dp3167
g82
I3
ssg83
g3161
sg76
(lp3168
g1244
asbasbasbag69
(g85
g71
NtRp3169
(dp3170
g74
(dp3171
sg83
g3081
sg76
(lp3172
g69
(g90
g71
NtRp3173
(dp3174
g74
(dp3175
g94
g95
ssg83
g3169
sg76
(lp3176
S'HTTP_ACCEPT_CHARSET'
p3177
asbag69
(g90
g71
NtRp3178
(dp3179
g74
(dp3180
g101
g102
ssg83
g3169
sg76
(lp3181
S':'
asbag69
(g90
g71
NtRp3182
(dp3183
g74
(dp3184
sg83
g3169
sg76
(lp3185
g69
(g70
g71
NtRp3186
(dp3187
g74
(dp3188
g82
I3
ssg83
g3182
sg76
(lp3189
g1266
asbasbasbag69
(g85
g71
NtRp3190
(dp3191
g74
(dp3192
sg83
g3081
sg76
(lp3193
g69
(g90
g71
NtRp3194
(dp3195
g74
(dp3196
g94
g95
ssg83
g3190
sg76
(lp3197
S'HTTP_ACCEPT_ENCODING'
p3198
asbag69
(g90
g71
NtRp3199
(dp3200
g74
(dp3201
g101
g102
ssg83
g3190
sg76
(lp3202
S':'
asbag69
(g90
g71
NtRp3203
(dp3204
g74
(dp3205
sg83
g3190
sg76
(lp3206
g69
(g70
g71
NtRp3207
(dp3208
g74
(dp3209
g82
I3
ssg83
g3203
sg76
(lp3210
g1288
asbasbasbag69
(g85
g71
NtRp3211
(dp3212
g74
(dp3213
sg83
g3081
sg76
(lp3214
g69
(g90
g71
NtRp3215
(dp3216
g74
(dp3217
g94
g95
ssg83
g3211
sg76
(lp3218
S'HTTP_ACCEPT_LANGUAGE'
p3219
asbag69
(g90
g71
NtRp3220
(dp3221
g74
(dp3222
g101
g102
ssg83
g3211
sg76
(lp3223
S':'
asbag69
(g90
g71
NtRp3224
(dp3225
g74
(dp3226
sg83
g3211
sg76
(lp3227
g69
(g70
g71
NtRp3228
(dp3229
g74
(dp3230
g82
I3
ssg83
g3224
sg76
(lp3231
g1310
asbasbasbag69
(g85
g71
NtRp3232
(dp3233
g74
(dp3234
sg83
g3081
sg76
(lp3235
g69
(g90
g71
NtRp3236
(dp3237
g74
(dp3238
g94
g95
ssg83
g3232
sg76
(lp3239
S'HTTP_CONNECTION'
p3240
asbag69
(g90
g71
NtRp3241
(dp3242
g74
(dp3243
g101
g102
ssg83
g3232
sg76
(lp3244
S':'
asbag69
(g90
g71
NtRp3245
(dp3246
g74
(dp3247
sg83
g3232
sg76
(lp3248
g69
(g70
g71
NtRp3249
(dp3250
g74
(dp3251
g82
I3
ssg83
g3245
sg76
(lp3252
g1332
asbasbasbag69
(g85
g71
NtRp3253
(dp3254
g74
(dp3255
sg83
g3081
sg76
(lp3256
g69
(g90
g71
NtRp3257
(dp3258
g74
(dp3259
g94
g95
ssg83
g3253
sg76
(lp3260
S'HTTP_COOKIE'
p3261
asbag69
(g90
g71
NtRp3262
(dp3263
g74
(dp3264
g101
g102
ssg83
g3253
sg76
(lp3265
S':'
asbag69
(g90
g71
NtRp3266
(dp3267
g74
(dp3268
sg83
g3253
sg76
(lp3269
g69
(g70
g71
NtRp3270
(dp3271
g74
(dp3272
g82
I3
ssg83
g3266
sg76
(lp3273
g1354
asbasbasbag69
(g85
g71
NtRp3274
(dp3275
g74
(dp3276
sg83
g3081
sg76
(lp3277
g69
(g90
g71
NtRp3278
(dp3279
g74
(dp3280
g94
g95
ssg83
g3274
sg76
(lp3281
S'HTTP_HOST'
p3282
asbag69
(g90
g71
NtRp3283
(dp3284
g74
(dp3285
g101
g102
ssg83
g3274
sg76
(lp3286
S':'
asbag69
(g90
g71
NtRp3287
(dp3288
g74
(dp3289
sg83
g3274
sg76
(lp3290
g69
(g70
g71
NtRp3291
(dp3292
g74
(dp3293
g82
I3
ssg83
g3287
sg76
(lp3294
g1376
asbasbasbag69
(g85
g71
NtRp3295
(dp3296
g74
(dp3297
sg83
g3081
sg76
(lp3298
g69
(g90
g71
NtRp3299
(dp3300
g74
(dp3301
g94
g95
ssg83
g3295
sg76
(lp3302
S'HTTP_ORIGIN'
p3303
asbag69
(g90
g71
NtRp3304
(dp3305
g74
(dp3306
g101
g102
ssg83
g3295
sg76
(lp3307
S':'
asbag69
(g90
g71
NtRp3308
(dp3309
g74
(dp3310
sg83
g3295
sg76
(lp3311
g69
(g70
g71
NtRp3312
(dp3313
g74
(dp3314
g82
I3
ssg83
g3308
sg76
(lp3315
g1398
asbasbasbag69
(g85
g71
NtRp3316
(dp3317
g74
(dp3318
sg83
g3081
sg76
(lp3319
g69
(g90
g71
NtRp3320
(dp3321
g74
(dp3322
g94
g95
ssg83
g3316
sg76
(lp3323
S'HTTP_REFERER'
p3324
asbag69
(g90
g71
NtRp3325
(dp3326
g74
(dp3327
g101
g102
ssg83
g3316
sg76
(lp3328
S':'
asbag69
(g90
g71
NtRp3329
(dp3330
g74
(dp3331
sg83
g3316
sg76
(lp3332
g69
(g70
g71
NtRp3333
(dp3334
g74
(dp3335
g82
I3
ssg83
g3329
sg76
(lp3336
g1420
asbasbasbag69
(g85
g71
NtRp3337
(dp3338
g74
(dp3339
sg83
g3081
sg76
(lp3340
g69
(g90
g71
NtRp3341
(dp3342
g74
(dp3343
g94
g95
ssg83
g3337
sg76
(lp3344
S'HTTP_USER_AGENT'
p3345
asbag69
(g90
g71
NtRp3346
(dp3347
g74
(dp3348
g101
g102
ssg83
g3337
sg76
(lp3349
S':'
asbag69
(g90
g71
NtRp3350
(dp3351
g74
(dp3352
sg83
g3337
sg76
(lp3353
g69
(g70
g71
NtRp3354
(dp3355
g74
(dp3356
g82
I3
ssg83
g3350
sg76
(lp3357
g1442
asbasbasbag69
(g85
g71
NtRp3358
(dp3359
g74
(dp3360
sg83
g3081
sg76
(lp3361
g69
(g90
g71
NtRp3362
(dp3363
g74
(dp3364
g94
g95
ssg83
g3358
sg76
(lp3365
S'HTTP_X_REQUESTED_WITH'
p3366
asbag69
(g90
g71
NtRp3367
(dp3368
g74
(dp3369
g101
g102
ssg83
g3358
sg76
(lp3370
S':'
asbag69
(g90
g71
NtRp3371
(dp3372
g74
(dp3373
sg83
g3358
sg76
(lp3374
g69
(g70
g71
NtRp3375
(dp3376
g74
(dp3377
g82
I3
ssg83
g3371
sg76
(lp3378
g1464
asbasbasbag69
(g85
g71
NtRp3379
(dp3380
g74
(dp3381
sg83
g3081
sg76
(lp3382
g69
(g90
g71
NtRp3383
(dp3384
g74
(dp3385
g94
g95
ssg83
g3379
sg76
(lp3386
S'PATH_INFO'
p3387
asbag69
(g90
g71
NtRp3388
(dp3389
g74
(dp3390
g101
g102
ssg83
g3379
sg76
(lp3391
S':'
asbag69
(g90
g71
NtRp3392
(dp3393
g74
(dp3394
sg83
g3379
sg76
(lp3395
g69
(g70
g71
NtRp3396
(dp3397
g74
(dp3398
g82
I3
ssg83
g3392
sg76
(lp3399
g1813
asbasbasbag69
(g85
g71
NtRp3400
(dp3401
g74
(dp3402
sg83
g3081
sg76
(lp3403
g69
(g90
g71
NtRp3404
(dp3405
g74
(dp3406
g94
g95
ssg83
g3400
sg76
(lp3407
S'PATH_TRANSLATED'
p3408
asbag69
(g90
g71
NtRp3409
(dp3410
g74
(dp3411
g101
g102
ssg83
g3400
sg76
(lp3412
S':'
asbag69
(g90
g71
NtRp3413
(dp3414
g74
(dp3415
sg83
g3400
sg76
(lp3416
g69
(g70
g71
NtRp3417
(dp3418
g74
(dp3419
g82
I3
ssg83
g3413
sg76
(lp3420
g1835
asbasbasbag69
(g85
g71
NtRp3421
(dp3422
g74
(dp3423
sg83
g3081
sg76
(lp3424
g69
(g90
g71
NtRp3425
(dp3426
g74
(dp3427
g94
g95
ssg83
g3421
sg76
(lp3428
S'QUERY_STRING'
p3429
asbag69
(g90
g71
NtRp3430
(dp3431
g74
(dp3432
g101
g102
ssg83
g3421
sg76
(lp3433
S':'
asbag69
(g90
g71
NtRp3434
(dp3435
g74
(dp3436
sg83
g3421
sg76
(lp3437
g69
(g70
g71
NtRp3438
(dp3439
g74
(dp3440
g82
I3
ssg83
g3434
sg76
(lp3441
S''
asbasbasbag69
(g85
g71
NtRp3442
(dp3443
g74
(dp3444
sg83
g3081
sg76
(lp3445
g69
(g90
g71
NtRp3446
(dp3447
g74
(dp3448
g94
g95
ssg83
g3442
sg76
(lp3449
S'REMOTE_ADDR'
p3450
asbag69
(g90
g71
NtRp3451
(dp3452
g74
(dp3453
g101
g102
ssg83
g3442
sg76
(lp3454
S':'
asbag69
(g90
g71
NtRp3455
(dp3456
g74
(dp3457
sg83
g3442
sg76
(lp3458
g69
(g70
g71
NtRp3459
(dp3460
g74
(dp3461
g82
I3
ssg83
g3455
sg76
(lp3462
g224
asbasbasbag69
(g85
g71
NtRp3463
(dp3464
g74
(dp3465
sg83
g3081
sg76
(lp3466
g69
(g90
g71
NtRp3467
(dp3468
g74
(dp3469
g94
g95
ssg83
g3463
sg76
(lp3470
S'REMOTE_PORT'
p3471
asbag69
(g90
g71
NtRp3472
(dp3473
g74
(dp3474
g101
g102
ssg83
g3463
sg76
(lp3475
S':'
asbag69
(g90
g71
NtRp3476
(dp3477
g74
(dp3478
sg83
g3463
sg76
(lp3479
g69
(g70
g71
NtRp3480
(dp3481
g74
(dp3482
g82
I3
ssg83
g3476
sg76
(lp3483
g1899
asbasbasbag69
(g85
g71
NtRp3484
(dp3485
g74
(dp3486
sg83
g3081
sg76
(lp3487
g69
(g90
g71
NtRp3488
(dp3489
g74
(dp3490
g94
g95
ssg83
g3484
sg76
(lp3491
S'REQUEST_METHOD'
p3492
asbag69
(g90
g71
NtRp3493
(dp3494
g74
(dp3495
g101
g102
ssg83
g3484
sg76
(lp3496
S':'
asbag69
(g90
g71
NtRp3497
(dp3498
g74
(dp3499
sg83
g3484
sg76
(lp3500
g69
(g70
g71
NtRp3501
(dp3502
g74
(dp3503
g82
I3
ssg83
g3497
sg76
(lp3504
g1921
asbasbasbag69
(g85
g71
NtRp3505
(dp3506
g74
(dp3507
sg83
g3081
sg76
(lp3508
g69
(g90
g71
NtRp3509
(dp3510
g74
(dp3511
g94
g95
ssg83
g3505
sg76
(lp3512
S'REQUEST_URI'
p3513
asbag69
(g90
g71
NtRp3514
(dp3515
g74
(dp3516
g101
g102
ssg83
g3505
sg76
(lp3517
S':'
asbag69
(g90
g71
NtRp3518
(dp3519
g74
(dp3520
sg83
g3505
sg76
(lp3521
g69
(g70
g71
NtRp3522
(dp3523
g74
(dp3524
g82
I3
ssg83
g3518
sg76
(lp3525
g1943
asbasbasbag69
(g85
g71
NtRp3526
(dp3527
g74
(dp3528
sg83
g3081
sg76
(lp3529
g69
(g90
g71
NtRp3530
(dp3531
g74
(dp3532
g94
g95
ssg83
g3526
sg76
(lp3533
S'SCRIPT_FILENAME'
p3534
asbag69
(g90
g71
NtRp3535
(dp3536
g74
(dp3537
g101
g102
ssg83
g3526
sg76
(lp3538
S':'
asbag69
(g90
g71
NtRp3539
(dp3540
g74
(dp3541
sg83
g3526
sg76
(lp3542
g69
(g70
g71
NtRp3543
(dp3544
g74
(dp3545
g82
I3
ssg83
g3539
sg76
(lp3546
g1965
asbasbasbag69
(g85
g71
NtRp3547
(dp3548
g74
(dp3549
sg83
g3081
sg76
(lp3550
g69
(g90
g71
NtRp3551
(dp3552
g74
(dp3553
g94
g95
ssg83
g3547
sg76
(lp3554
S'SCRIPT_NAME'
p3555
asbag69
(g90
g71
NtRp3556
(dp3557
g74
(dp3558
g101
g102
ssg83
g3547
sg76
(lp3559
S':'
asbag69
(g90
g71
NtRp3560
(dp3561
g74
(dp3562
sg83
g3547
sg76
(lp3563
g69
(g70
g71
NtRp3564
(dp3565
g74
(dp3566
g82
I3
ssg83
g3560
sg76
(lp3567
S''
asbasbasbag69
(g85
g71
NtRp3568
(dp3569
g74
(dp3570
sg83
g3081
sg76
(lp3571
g69
(g90
g71
NtRp3572
(dp3573
g74
(dp3574
g94
g95
ssg83
g3568
sg76
(lp3575
S'SERVER_ADDR'
p3576
asbag69
(g90
g71
NtRp3577
(dp3578
g74
(dp3579
g101
g102
ssg83
g3568
sg76
(lp3580
S':'
asbag69
(g90
g71
NtRp3581
(dp3582
g74
(dp3583
sg83
g3568
sg76
(lp3584
g69
(g70
g71
NtRp3585
(dp3586
g74
(dp3587
g82
I3
ssg83
g3581
sg76
(lp3588
g2008
asbasbasbag69
(g85
g71
NtRp3589
(dp3590
g74
(dp3591
sg83
g3081
sg76
(lp3592
g69
(g90
g71
NtRp3593
(dp3594
g74
(dp3595
g94
g95
ssg83
g3589
sg76
(lp3596
S'SERVER_ADMIN'
p3597
asbag69
(g90
g71
NtRp3598
(dp3599
g74
(dp3600
g101
g102
ssg83
g3589
sg76
(lp3601
S':'
asbag69
(g90
g71
NtRp3602
(dp3603
g74
(dp3604
sg83
g3589
sg76
(lp3605
g69
(g70
g71
NtRp3606
(dp3607
g74
(dp3608
g82
I3
ssg83
g3602
sg76
(lp3609
g2030
asbasbasbag69
(g85
g71
NtRp3610
(dp3611
g74
(dp3612
sg83
g3081
sg76
(lp3613
g69
(g90
g71
NtRp3614
(dp3615
g74
(dp3616
g94
g95
ssg83
g3610
sg76
(lp3617
S'SERVER_NAME'
p3618
asbag69
(g90
g71
NtRp3619
(dp3620
g74
(dp3621
g101
g102
ssg83
g3610
sg76
(lp3622
S':'
asbag69
(g90
g71
NtRp3623
(dp3624
g74
(dp3625
sg83
g3610
sg76
(lp3626
g69
(g70
g71
NtRp3627
(dp3628
g74
(dp3629
g82
I3
ssg83
g3623
sg76
(lp3630
g2052
asbasbasbag69
(g85
g71
NtRp3631
(dp3632
g74
(dp3633
sg83
g3081
sg76
(lp3634
g69
(g90
g71
NtRp3635
(dp3636
g74
(dp3637
g94
g95
ssg83
g3631
sg76
(lp3638
S'SERVER_PORT'
p3639
asbag69
(g90
g71
NtRp3640
(dp3641
g74
(dp3642
g101
g102
ssg83
g3631
sg76
(lp3643
S':'
asbag69
(g90
g71
NtRp3644
(dp3645
g74
(dp3646
sg83
g3631
sg76
(lp3647
g69
(g70
g71
NtRp3648
(dp3649
g74
(dp3650
g82
I3
ssg83
g3644
sg76
(lp3651
g2074
asbasbasbag69
(g85
g71
NtRp3652
(dp3653
g74
(dp3654
sg83
g3081
sg76
(lp3655
g69
(g90
g71
NtRp3656
(dp3657
g74
(dp3658
g94
g95
ssg83
g3652
sg76
(lp3659
S'SERVER_PROTOCOL'
p3660
asbag69
(g90
g71
NtRp3661
(dp3662
g74
(dp3663
g101
g102
ssg83
g3652
sg76
(lp3664
S':'
asbag69
(g90
g71
NtRp3665
(dp3666
g74
(dp3667
sg83
g3652
sg76
(lp3668
g69
(g70
g71
NtRp3669
(dp3670
g74
(dp3671
g82
I3
ssg83
g3665
sg76
(lp3672
g2096
asbasbasbag69
(g85
g71
NtRp3673
(dp3674
g74
(dp3675
sg83
g3081
sg76
(lp3676
g69
(g90
g71
NtRp3677
(dp3678
g74
(dp3679
g94
g95
ssg83
g3673
sg76
(lp3680
S'SERVER_SIGNATURE'
p3681
asbag69
(g90
g71
NtRp3682
(dp3683
g74
(dp3684
g101
g102
ssg83
g3673
sg76
(lp3685
S':'
asbag69
(g90
g71
NtRp3686
(dp3687
g74
(dp3688
sg83
g3673
sg76
(lp3689
g69
(g70
g71
NtRp3690
(dp3691
g74
(dp3692
g82
I3
ssg83
g3686
sg76
(lp3693
S''
asbasbasbag69
(g85
g71
NtRp3694
(dp3695
g74
(dp3696
sg83
g3081
sg76
(lp3697
g69
(g90
g71
NtRp3698
(dp3699
g74
(dp3700
g94
g95
ssg83
g3694
sg76
(lp3701
S'SERVER_SOFTWARE'
p3702
asbag69
(g90
g71
NtRp3703
(dp3704
g74
(dp3705
g101
g102
ssg83
g3694
sg76
(lp3706
S':'
asbag69
(g90
g71
NtRp3707
(dp3708
g74
(dp3709
sg83
g3694
sg76
(lp3710
g69
(g70
g71
NtRp3711
(dp3712
g74
(dp3713
g82
I3
ssg83
g3707
sg76
(lp3714
g2139
asbasbasbag69
(g85
g71
NtRp3715
(dp3716
g74
(dp3717
sg83
g3081
sg76
(lp3718
g69
(g90
g71
NtRp3719
(dp3720
g74
(dp3721
g94
g95
ssg83
g3715
sg76
(lp3722
S'mod_wsgi.application_group'
p3723
asbag69
(g90
g71
NtRp3724
(dp3725
g74
(dp3726
g101
g102
ssg83
g3715
sg76
(lp3727
S':'
asbag69
(g90
g71
NtRp3728
(dp3729
g74
(dp3730
sg83
g3715
sg76
(lp3731
g69
(g70
g71
NtRp3732
(dp3733
g74
(dp3734
g82
I3
ssg83
g3728
sg76
(lp3735
g1528
asbasbasbag69
(g85
g71
NtRp3736
(dp3737
g74
(dp3738
sg83
g3081
sg76
(lp3739
g69
(g90
g71
NtRp3740
(dp3741
g74
(dp3742
g94
g95
ssg83
g3736
sg76
(lp3743
S'mod_wsgi.callable_object'
p3744
asbag69
(g90
g71
NtRp3745
(dp3746
g74
(dp3747
g101
g102
ssg83
g3736
sg76
(lp3748
S':'
asbag69
(g90
g71
NtRp3749
(dp3750
g74
(dp3751
sg83
g3736
sg76
(lp3752
g69
(g70
g71
NtRp3753
(dp3754
g74
(dp3755
g82
I3
ssg83
g3749
sg76
(lp3756
g1550
asbasbasbag69
(g85
g71
NtRp3757
(dp3758
g74
(dp3759
sg83
g3081
sg76
(lp3760
g69
(g90
g71
NtRp3761
(dp3762
g74
(dp3763
g94
g95
ssg83
g3757
sg76
(lp3764
S'mod_wsgi.enable_sendfile'
p3765
asbag69
(g90
g71
NtRp3766
(dp3767
g74
(dp3768
g101
g102
ssg83
g3757
sg76
(lp3769
S':'
asbag69
(g90
g71
NtRp3770
(dp3771
g74
(dp3772
sg83
g3757
sg76
(lp3773
g69
(g70
g71
NtRp3774
(dp3775
g74
(dp3776
g82
I3
ssg83
g3770
sg76
(lp3777
S'0'
asbasbasbag69
(g85
g71
NtRp3778
(dp3779
g74
(dp3780
sg83
g3081
sg76
(lp3781
g69
(g90
g71
NtRp3782
(dp3783
g74
(dp3784
g94
g95
ssg83
g3778
sg76
(lp3785
S'mod_wsgi.handler_script'
p3786
asbag69
(g90
g71
NtRp3787
(dp3788
g74
(dp3789
g101
g102
ssg83
g3778
sg76
(lp3790
S':'
asbag69
(g90
g71
NtRp3791
(dp3792
g74
(dp3793
sg83
g3778
sg76
(lp3794
g69
(g70
g71
NtRp3795
(dp3796
g74
(dp3797
g82
I3
ssg83
g3791
sg76
(lp3798
S''
asbasbasbag69
(g85
g71
NtRp3799
(dp3800
g74
(dp3801
sg83
g3081
sg76
(lp3802
g69
(g90
g71
NtRp3803
(dp3804
g74
(dp3805
g94
g95
ssg83
g3799
sg76
(lp3806
S'mod_wsgi.input_chunked'
p3807
asbag69
(g90
g71
NtRp3808
(dp3809
g74
(dp3810
g101
g102
ssg83
g3799
sg76
(lp3811
S':'
asbag69
(g90
g71
NtRp3812
(dp3813
g74
(dp3814
sg83
g3799
sg76
(lp3815
g69
(g70
g71
NtRp3816
(dp3817
g74
(dp3818
g82
I3
ssg83
g3812
sg76
(lp3819
S'0'
asbasbasbag69
(g85
g71
NtRp3820
(dp3821
g74
(dp3822
sg83
g3081
sg76
(lp3823
g69
(g90
g71
NtRp3824
(dp3825
g74
(dp3826
g94
g95
ssg83
g3820
sg76
(lp3827
S'mod_wsgi.listener_host'
p3828
asbag69
(g90
g71
NtRp3829
(dp3830
g74
(dp3831
g101
g102
ssg83
g3820
sg76
(lp3832
S':'
asbag69
(g90
g71
NtRp3833
(dp3834
g74
(dp3835
sg83
g3820
sg76
(lp3836
g69
(g70
g71
NtRp3837
(dp3838
g74
(dp3839
g82
I3
ssg83
g3833
sg76
(lp3840
S''
asbasbasbag69
(g85
g71
NtRp3841
(dp3842
g74
(dp3843
sg83
g3081
sg76
(lp3844
g69
(g90
g71
NtRp3845
(dp3846
g74
(dp3847
g94
g95
ssg83
g3841
sg76
(lp3848
S'mod_wsgi.listener_port'
p3849
asbag69
(g90
g71
NtRp3850
(dp3851
g74
(dp3852
g101
g102
ssg83
g3841
sg76
(lp3853
S':'
asbag69
(g90
g71
NtRp3854
(dp3855
g74
(dp3856
sg83
g3841
sg76
(lp3857
g69
(g70
g71
NtRp3858
(dp3859
g74
(dp3860
g82
I3
ssg83
g3854
sg76
(lp3861
g1656
asbasbasbag69
(g85
g71
NtRp3862
(dp3863
g74
(dp3864
sg83
g3081
sg76
(lp3865
g69
(g90
g71
NtRp3866
(dp3867
g74
(dp3868
g94
g95
ssg83
g3862
sg76
(lp3869
S'mod_wsgi.process_group'
p3870
asbag69
(g90
g71
NtRp3871
(dp3872
g74
(dp3873
g101
g102
ssg83
g3862
sg76
(lp3874
S':'
asbag69
(g90
g71
NtRp3875
(dp3876
g74
(dp3877
sg83
g3862
sg76
(lp3878
g69
(g70
g71
NtRp3879
(dp3880
g74
(dp3881
g82
I3
ssg83
g3875
sg76
(lp3882
S''
asbasbasbag69
(g85
g71
NtRp3883
(dp3884
g74
(dp3885
sg83
g3081
sg76
(lp3886
g69
(g90
g71
NtRp3887
(dp3888
g74
(dp3889
g94
g95
ssg83
g3883
sg76
(lp3890
S'mod_wsgi.queue_start'
p3891
asbag69
(g90
g71
NtRp3892
(dp3893
g74
(dp3894
g101
g102
ssg83
g3883
sg76
(lp3895
S':'
asbag69
(g90
g71
NtRp3896
(dp3897
g74
(dp3898
sg83
g3883
sg76
(lp3899
g69
(g70
g71
NtRp3900
(dp3901
g74
(dp3902
g82
I3
ssg83
g3896
sg76
(lp3903
g1699
asbasbasbag69
(g85
g71
NtRp3904
(dp3905
g74
(dp3906
sg83
g3081
sg76
(lp3907
g69
(g90
g71
NtRp3908
(dp3909
g74
(dp3910
g94
g95
ssg83
g3904
sg76
(lp3911
S'mod_wsgi.request_handler'
p3912
asbag69
(g90
g71
NtRp3913
(dp3914
g74
(dp3915
g101
g102
ssg83
g3904
sg76
(lp3916
S':'
asbag69
(g90
g71
NtRp3917
(dp3918
g74
(dp3919
sg83
g3904
sg76
(lp3920
g69
(g70
g71
NtRp3921
(dp3922
g74
(dp3923
g82
I3
ssg83
g3917
sg76
(lp3924
g1721
asbasbasbag69
(g85
g71
NtRp3925
(dp3926
g74
(dp3927
sg83
g3081
sg76
(lp3928
g69
(g90
g71
NtRp3929
(dp3930
g74
(dp3931
g94
g95
ssg83
g3925
sg76
(lp3932
S'mod_wsgi.script_reloading'
p3933
asbag69
(g90
g71
NtRp3934
(dp3935
g74
(dp3936
g101
g102
ssg83
g3925
sg76
(lp3937
S':'
asbag69
(g90
g71
NtRp3938
(dp3939
g74
(dp3940
sg83
g3925
sg76
(lp3941
g69
(g70
g71
NtRp3942
(dp3943
g74
(dp3944
g82
I3
ssg83
g3938
sg76
(lp3945
S'1'
asbasbasbag69
(g85
g71
NtRp3946
(dp3947
g74
(dp3948
sg83
g3081
sg76
(lp3949
g69
(g90
g71
NtRp3950
(dp3951
g74
(dp3952
g94
g95
ssg83
g3946
sg76
(lp3953
S'mod_wsgi.version'
p3954
asbag69
(g90
g71
NtRp3955
(dp3956
g74
(dp3957
g101
g102
ssg83
g3946
sg76
(lp3958
S':'
asbag69
(g90
g71
NtRp3959
(dp3960
g74
(dp3961
sg83
g3946
sg76
(lp3962
g69
(g70
g71
NtRp3963
(dp3964
g74
(dp3965
g82
I3
ssg83
g3959
sg76
(lp3966
g69
(g78
g71
NtRp3967
(dp3968
g74
(dp3969
g82
I2
ssg83
Nsg76
(lp3970
g69
(g85
g71
NtRp3971
(dp3972
g74
(dp3973
sg83
g3967
sg76
(lp3974
g69
(g90
g71
NtRp3975
(dp3976
g74
(dp3977
sg83
g3971
sg76
(lp3978
g69
(g70
g71
NtRp3979
(dp3980
g74
(dp3981
g82
I2
ssg83
g3975
sg76
(lp3982
S'3'
asbasbasbag69
(g85
g71
NtRp3983
(dp3984
g74
(dp3985
sg83
g3967
sg76
(lp3986
g69
(g90
g71
NtRp3987
(dp3988
g74
(dp3989
sg83
g3983
sg76
(lp3990
g69
(g70
g71
NtRp3991
(dp3992
g74
(dp3993
g82
I2
ssg83
g3987
sg76
(lp3994
S'4'
asbasbasbasbasbasbasbag69
(g85
g71
NtRp3995
(dp3996
g74
(dp3997
sg83
g3081
sg76
(lp3998
g69
(g90
g71
NtRp3999
(dp4000
g74
(dp4001
g94
g95
ssg83
g3995
sg76
(lp4002
S'wsgi.errors'
p4003
asbag69
(g90
g71
NtRp4004
(dp4005
g74
(dp4006
g101
g102
ssg83
g3995
sg76
(lp4007
S':'
asbag69
(g90
g71
NtRp4008
(dp4009
g74
(dp4010
sg83
g3995
sg76
(lp4011
g69
(g70
g71
NtRp4012
(dp4013
g74
(dp4014
g82
I3
ssg83
g4008
sg76
(lp4015
S'<mod_wsgi.Log object at 0x10d86b930>'
p4016
asbasbasbag69
(g85
g71
NtRp4017
(dp4018
g74
(dp4019
sg83
g3081
sg76
(lp4020
g69
(g90
g71
NtRp4021
(dp4022
g74
(dp4023
g94
g95
ssg83
g4017
sg76
(lp4024
S'wsgi.file_wrapper'
p4025
asbag69
(g90
g71
NtRp4026
(dp4027
g74
(dp4028
g101
g102
ssg83
g4017
sg76
(lp4029
S':'
asbag69
(g90
g71
NtRp4030
(dp4031
g74
(dp4032
sg83
g4017
sg76
(lp4033
g69
(g70
g71
NtRp4034
(dp4035
g74
(dp4036
g82
I3
ssg83
g4030
sg76
(lp4037
S'<built-in method file_wrapper of mod_wsgi.Adapter object at 0x10d46eaf8>'
p4038
asbasbasbag69
(g85
g71
NtRp4039
(dp4040
g74
(dp4041
sg83
g3081
sg76
(lp4042
g69
(g90
g71
NtRp4043
(dp4044
g74
(dp4045
g94
g95
ssg83
g4039
sg76
(lp4046
S'wsgi.input'
p4047
asbag69
(g90
g71
NtRp4048
(dp4049
g74
(dp4050
g101
g102
ssg83
g4039
sg76
(lp4051
S':'
asbag69
(g90
g71
NtRp4052
(dp4053
g74
(dp4054
sg83
g4039
sg76
(lp4055
g69
(g70
g71
NtRp4056
(dp4057
g74
(dp4058
g82
I3
ssg83
g4052
sg76
(lp4059
S"<open file '<fdopen>', mode 'w+b' at 0x10d0d1c90>"
p4060
asbasbasbag69
(g85
g71
NtRp4061
(dp4062
g74
(dp4063
sg83
g3081
sg76
(lp4064
g69
(g90
g71
NtRp4065
(dp4066
g74
(dp4067
g94
g95
ssg83
g4061
sg76
(lp4068
S'wsgi.multiprocess'
p4069
asbag69
(g90
g71
NtRp4070
(dp4071
g74
(dp4072
g101
g102
ssg83
g4061
sg76
(lp4073
S':'
asbag69
(g90
g71
NtRp4074
(dp4075
g74
(dp4076
sg83
g4061
sg76
(lp4077
g69
(g70
g71
NtRp4078
(dp4079
g74
(dp4080
g82
I3
ssg83
g4074
sg76
(lp4081
g112
asbasbasbag69
(g85
g71
NtRp4082
(dp4083
g74
(dp4084
sg83
g3081
sg76
(lp4085
g69
(g90
g71
NtRp4086
(dp4087
g74
(dp4088
g94
g95
ssg83
g4082
sg76
(lp4089
S'wsgi.multithread'
p4090
asbag69
(g90
g71
NtRp4091
(dp4092
g74
(dp4093
g101
g102
ssg83
g4082
sg76
(lp4094
S':'
asbag69
(g90
g71
NtRp4095
(dp4096
g74
(dp4097
sg83
g4082
sg76
(lp4098
g69
(g70
g71
NtRp4099
(dp4100
g74
(dp4101
g82
I3
ssg83
g4095
sg76
(lp4102
g1157
asbasbasbag69
(g85
g71
NtRp4103
(dp4104
g74
(dp4105
sg83
g3081
sg76
(lp4106
g69
(g90
g71
NtRp4107
(dp4108
g74
(dp4109
g94
g95
ssg83
g4103
sg76
(lp4110
S'wsgi.run_once'
p4111
asbag69
(g90
g71
NtRp4112
(dp4113
g74
(dp4114
g101
g102
ssg83
g4103
sg76
(lp4115
S':'
asbag69
(g90
g71
NtRp4116
(dp4117
g74
(dp4118
sg83
g4103
sg76
(lp4119
g69
(g70
g71
NtRp4120
(dp4121
g74
(dp4122
g82
I3
ssg83
g4116
sg76
(lp4123
g1157
asbasbasbag69
(g85
g71
NtRp4124
(dp4125
g74
(dp4126
sg83
g3081
sg76
(lp4127
g69
(g90
g71
NtRp4128
(dp4129
g74
(dp4130
g94
g95
ssg83
g4124
sg76
(lp4131
S'wsgi.url_scheme'
p4132
asbag69
(g90
g71
NtRp4133
(dp4134
g74
(dp4135
g101
g102
ssg83
g4124
sg76
(lp4136
S':'
asbag69
(g90
g71
NtRp4137
(dp4138
g74
(dp4139
sg83
g4124
sg76
(lp4140
g69
(g70
g71
NtRp4141
(dp4142
g74
(dp4143
g82
I3
ssg83
g4137
sg76
(lp4144
g2398
asbasbasbag69
(g85
g71
NtRp4145
(dp4146
g74
(dp4147
sg83
g3081
sg76
(lp4148
g69
(g90
g71
NtRp4149
(dp4150
g74
(dp4151
g94
g95
ssg83
g4145
sg76
(lp4152
S'wsgi.version'
p4153
asbag69
(g90
g71
NtRp4154
(dp4155
g74
(dp4156
g101
g102
ssg83
g4145
sg76
(lp4157
S':'
asbag69
(g90
g71
NtRp4158
(dp4159
g74
(dp4160
sg83
g4145
sg76
(lp4161
g69
(g70
g71
NtRp4162
(dp4163
g74
(dp4164
g82
I3
ssg83
g4158
sg76
(lp4165
S'1'
asbasbasbasbasbasbasbasbasbasbasbasbasbsS'frames'
p4166
(lp4167
(dp4168
S'file'
p4169
S'/Users/joselara/www/web2py/gluon/restricted.py'
p4170
sS'dump'
p4171
(dp4172
S'code'
p4173
S"'# -*- coding: utf-8 -*-\\n# this file is released ...).xml()\\n\\n\\n\\nresponse._vars=response._caller(data)\\n'"
p4174
sS'layer'
p4175
S"'/Users/joselara/www/web2py/applications/randomwords/controllers/default.py'"
p4176
sS'global compile2'
p4177
S'<function compile2>'
p4178
sS'ccode'
p4179
S'undefined'
p4180
ssS'lnum'
p4181
I208
sS'lines'
p4182
(dp4183
I203
S"    environment['__name__'] = '__restricted__'"
p4184
sI204
S'    try:'
p4185
sI205
S'        if type(code) == types.CodeType:'
p4186
sI206
S'            ccode = code'
p4187
sI207
S'        else:'
p4188
sI208
S'            ccode = compile2(code,layer)'
p4189
sI209
S'        exec ccode in environment'
p4190
sI210
S'    except HTTP:'
p4191
sI211
S'        raise'
p4192
sI212
S'    except RestrictedError:'
p4193
ssS'call'
p4194
S"(code='# -*- coding: utf-8 -*-\\n# this file is released ...).xml()\\n\\n\\n\\nresponse._vars=response._caller(data)\\n', environment={'A': <class 'gluon.html.A'>, 'B': <class 'gluon.html.B'>, 'BEAUTIFY': <class 'gluon.html.BEAUTIFY'>, 'BODY': <class 'gluon.html.BODY'>, 'BR': <class 'gluon.html.BR'>, 'BUTTON': <class 'gluon.html.BUTTON'>, 'CAT': <class 'gluon.html.CAT'>, 'CENTER': <class 'gluon.html.CENTER'>, 'CLEANUP': <class 'gluon.validators.CLEANUP'>, 'CODE': <class 'gluon.html.CODE'>, ...}, layer='/Users/joselara/www/web2py/applications/randomwords/controllers/default.py')"
p4195
sS'func'
p4196
S'restricted'
p4197
sa(dp4198
g4169
S'/Users/joselara/www/web2py/gluon/restricted.py'
p4199
sg4171
(dp4200
S'builtincompile'
p4201
S'<built-in function compile>'
p4202
sS'code'
p4203
S"'# -*- coding: utf-8 -*-\\n# this file is released ...).xml()\\n\\n\\n\\nresponse._vars=response._caller(data)\\n'"
p4204
sS'code.rstrip'
p4205
S'<built-in method rstrip of str object>'
p4206
sS').replace'
p4207
g4180
sS'layer'
p4208
S"'/Users/joselara/www/web2py/applications/randomwords/controllers/default.py'"
p4209
ssg4181
I193
sg4182
(dp4210
I192
S'    """'
p4211
sI193
S"    return compile(code.rstrip().replace('\\r\\n','\\n')+'\\n', layer, 'exec')"
p4212
sI194
S''
sI195
S"def restricted(code, environment=None, layer='Unknown'):"
p4213
sI196
S'    """'
p4214
sI197
S'    runs code in environment and returns the output. if an exception occurs'
p4215
sI188
S''
sI189
S'def compile2(code,layer):'
p4216
sI190
S'    """'
p4217
sI191
S"    The +'\\n' is necessary else compile fails when code ends in a comment."
p4218
ssg4194
S"(code='# -*- coding: utf-8 -*-\\n# this file is released ...).xml()\\n\\n\\n\\nresponse._vars=response._caller(data)\\n', layer='/Users/joselara/www/web2py/applications/randomwords/controllers/default.py')"
p4219
sg4196
S'compile2'
p4220
sasS'pyver'
p4221
S'Python 2.7.2: /usr/bin/python'
p4222
sS'session'
p4223
g69
(g70
g71
NtRp4224
(dp4225
g74
(dp4226
sg76
(lp4227
g69
(g78
g71
NtRp4228
(dp4229
g74
(dp4230
g82
I5
ssg83
Nsg76
(lp4231
sbasbsS'etype'
p4232
S"<type 'exceptions.IndentationError'>"
p4233
sS'date'
p4234
S'Wed Oct 24 01:28:15 2012'
p4235
sS'response'
p4236
g69
(g70
g71
NtRp4237
(dp4238
g74
(dp4239
sg76
(lp4240
g69
(g78
g71
NtRp4241
(dp4242
g74
(dp4243
g82
I5
ssg83
Nsg76
(lp4244
g69
(g85
g71
NtRp4245
(dp4246
g74
(dp4247
sg83
g4241
sg76
(lp4248
g69
(g90
g71
NtRp4249
(dp4250
g74
(dp4251
g94
g95
ssg83
g4245
sg76
(lp4252
g167
asbag69
(g90
g71
NtRp4253
(dp4254
g74
(dp4255
g101
g102
ssg83
g4245
sg76
(lp4256
S':'
asbag69
(g90
g71
NtRp4257
(dp4258
g74
(dp4259
sg83
g4245
sg76
(lp4260
g69
(g70
g71
NtRp4261
(dp4262
g74
(dp4263
g82
I5
ssg83
g4257
sg76
(lp4264
S'<cStringIO.StringO object at 0x10d0cad50>'
p4265
asbasbasbag69
(g85
g71
NtRp4266
(dp4267
g74
(dp4268
sg83
g4241
sg76
(lp4269
g69
(g90
g71
NtRp4270
(dp4271
g74
(dp4272
g94
g95
ssg83
g4266
sg76
(lp4273
g255
asbag69
(g90
g71
NtRp4274
(dp4275
g74
(dp4276
g101
g102
ssg83
g4266
sg76
(lp4277
S':'
asbag69
(g90
g71
NtRp4278
(dp4279
g74
(dp4280
sg83
g4266
sg76
(lp4281
g69
(g70
g71
NtRp4282
(dp4283
g74
(dp4284
g82
I5
ssg83
g4278
sg76
(lp4285
g69
(g78
g71
NtRp4286
(dp4287
g74
(dp4288
g82
I4
ssg83
Nsg76
(lp4289
g69
(g85
g71
NtRp4290
(dp4291
g74
(dp4292
sg83
g4286
sg76
(lp4293
g69
(g90
g71
NtRp4294
(dp4295
g74
(dp4296
g94
g95
ssg83
g4290
sg76
(lp4297
S'session_id_randomwords'
p4298
asbag69
(g90
g71
NtRp4299
(dp4300
g74
(dp4301
g101
g102
ssg83
g4290
sg76
(lp4302
S':'
asbag69
(g90
g71
NtRp4303
(dp4304
g74
(dp4305
sg83
g4290
sg76
(lp4306
g69
(g70
g71
NtRp4307
(dp4308
g74
(dp4309
g82
I4
ssg83
g4303
sg76
(lp4310
g673
ag69
(g78
g71
NtRp4311
(dp4312
g74
(dp4313
g82
I3
ssg83
Nsg76
(lp4314
g69
(g85
g71
NtRp4315
(dp4316
g74
(dp4317
sg83
g4311
sg76
(lp4318
g69
(g90
g71
NtRp4319
(dp4320
g74
(dp4321
g94
g95
ssg83
g4315
sg76
(lp4322
g306
asbag69
(g90
g71
NtRp4323
(dp4324
g74
(dp4325
g101
g102
ssg83
g4315
sg76
(lp4326
S':'
asbag69
(g90
g71
NtRp4327
(dp4328
g74
(dp4329
sg83
g4315
sg76
(lp4330
g69
(g70
g71
NtRp4331
(dp4332
g74
(dp4333
g82
I3
ssg83
g4327
sg76
(lp4334
S''
asbasbasbag69
(g85
g71
NtRp4335
(dp4336
g74
(dp4337
sg83
g4311
sg76
(lp4338
g69
(g90
g71
NtRp4339
(dp4340
g74
(dp4341
g94
g95
ssg83
g4335
sg76
(lp4342
g327
asbag69
(g90
g71
NtRp4343
(dp4344
g74
(dp4345
g101
g102
ssg83
g4335
sg76
(lp4346
S':'
asbag69
(g90
g71
NtRp4347
(dp4348
g74
(dp4349
sg83
g4335
sg76
(lp4350
g69
(g70
g71
NtRp4351
(dp4352
g74
(dp4353
g82
I3
ssg83
g4347
sg76
(lp4354
S''
asbasbasbag69
(g85
g71
NtRp4355
(dp4356
g74
(dp4357
sg83
g4311
sg76
(lp4358
g69
(g90
g71
NtRp4359
(dp4360
g74
(dp4361
g94
g95
ssg83
g4355
sg76
(lp4362
g348
asbag69
(g90
g71
NtRp4363
(dp4364
g74
(dp4365
g101
g102
ssg83
g4355
sg76
(lp4366
S':'
asbag69
(g90
g71
NtRp4367
(dp4368
g74
(dp4369
sg83
g4355
sg76
(lp4370
g69
(g70
g71
NtRp4371
(dp4372
g74
(dp4373
g82
I3
ssg83
g4367
sg76
(lp4374
S''
asbasbasbag69
(g85
g71
NtRp4375
(dp4376
g74
(dp4377
sg83
g4311
sg76
(lp4378
g69
(g90
g71
NtRp4379
(dp4380
g74
(dp4381
g94
g95
ssg83
g4375
sg76
(lp4382
g369
asbag69
(g90
g71
NtRp4383
(dp4384
g74
(dp4385
g101
g102
ssg83
g4375
sg76
(lp4386
S':'
asbag69
(g90
g71
NtRp4387
(dp4388
g74
(dp4389
sg83
g4375
sg76
(lp4390
g69
(g70
g71
NtRp4391
(dp4392
g74
(dp4393
g82
I3
ssg83
g4387
sg76
(lp4394
S''
asbasbasbag69
(g85
g71
NtRp4395
(dp4396
g74
(dp4397
sg83
g4311
sg76
(lp4398
g69
(g90
g71
NtRp4399
(dp4400
g74
(dp4401
g94
g95
ssg83
g4395
sg76
(lp4402
g390
asbag69
(g90
g71
NtRp4403
(dp4404
g74
(dp4405
g101
g102
ssg83
g4395
sg76
(lp4406
S':'
asbag69
(g90
g71
NtRp4407
(dp4408
g74
(dp4409
sg83
g4395
sg76
(lp4410
g69
(g70
g71
NtRp4411
(dp4412
g74
(dp4413
g82
I3
ssg83
g4407
sg76
(lp4414
S''
asbasbasbag69
(g85
g71
NtRp4415
(dp4416
g74
(dp4417
sg83
g4311
sg76
(lp4418
g69
(g90
g71
NtRp4419
(dp4420
g74
(dp4421
g94
g95
ssg83
g4415
sg76
(lp4422
g411
asbag69
(g90
g71
NtRp4423
(dp4424
g74
(dp4425
g101
g102
ssg83
g4415
sg76
(lp4426
S':'
asbag69
(g90
g71
NtRp4427
(dp4428
g74
(dp4429
sg83
g4415
sg76
(lp4430
g69
(g70
g71
NtRp4431
(dp4432
g74
(dp4433
g82
I3
ssg83
g4427
sg76
(lp4434
S'/'
asbasbasbag69
(g85
g71
NtRp4435
(dp4436
g74
(dp4437
sg83
g4311
sg76
(lp4438
g69
(g90
g71
NtRp4439
(dp4440
g74
(dp4441
g94
g95
ssg83
g4435
sg76
(lp4442
g432
asbag69
(g90
g71
NtRp4443
(dp4444
g74
(dp4445
g101
g102
ssg83
g4435
sg76
(lp4446
S':'
asbag69
(g90
g71
NtRp4447
(dp4448
g74
(dp4449
sg83
g4435
sg76
(lp4450
g69
(g70
g71
NtRp4451
(dp4452
g74
(dp4453
g82
I3
ssg83
g4447
sg76
(lp4454
S''
asbasbasbag69
(g85
g71
NtRp4455
(dp4456
g74
(dp4457
sg83
g4311
sg76
(lp4458
g69
(g90
g71
NtRp4459
(dp4460
g74
(dp4461
g94
g95
ssg83
g4455
sg76
(lp4462
g453
asbag69
(g90
g71
NtRp4463
(dp4464
g74
(dp4465
g101
g102
ssg83
g4455
sg76
(lp4466
S':'
asbag69
(g90
g71
NtRp4467
(dp4468
g74
(dp4469
sg83
g4455
sg76
(lp4470
g69
(g70
g71
NtRp4471
(dp4472
g74
(dp4473
g82
I3
ssg83
g4467
sg76
(lp4474
S''
asbasbasbasbasbasbasbasbasbasbasbag69
(g85
g71
NtRp4475
(dp4476
g74
(dp4477
sg83
g4241
sg76
(lp4478
g69
(g90
g71
NtRp4479
(dp4480
g74
(dp4481
g94
g95
ssg83
g4475
sg76
(lp4482
S'delimiters'
p4483
asbag69
(g90
g71
NtRp4484
(dp4485
g74
(dp4486
g101
g102
ssg83
g4475
sg76
(lp4487
S':'
asbag69
(g90
g71
NtRp4488
(dp4489
g74
(dp4490
sg83
g4475
sg76
(lp4491
g69
(g70
g71
NtRp4492
(dp4493
g74
(dp4494
g82
I5
ssg83
g4488
sg76
(lp4495
g69
(g78
g71
NtRp4496
(dp4497
g74
(dp4498
g82
I4
ssg83
Nsg76
(lp4499
g69
(g85
g71
NtRp4500
(dp4501
g74
(dp4502
sg83
g4496
sg76
(lp4503
g69
(g90
g71
NtRp4504
(dp4505
g74
(dp4506
sg83
g4500
sg76
(lp4507
g69
(g70
g71
NtRp4508
(dp4509
g74
(dp4510
g82
I4
ssg83
g4504
sg76
(lp4511
S'{{'
p4512
asbasbasbag69
(g85
g71
NtRp4513
(dp4514
g74
(dp4515
sg83
g4496
sg76
(lp4516
g69
(g90
g71
NtRp4517
(dp4518
g74
(dp4519
sg83
g4513
sg76
(lp4520
g69
(g70
g71
NtRp4521
(dp4522
g74
(dp4523
g82
I4
ssg83
g4517
sg76
(lp4524
S'}}'
p4525
asbasbasbasbasbasbasbag69
(g85
g71
NtRp4526
(dp4527
g74
(dp4528
sg83
g4241
sg76
(lp4529
g69
(g90
g71
NtRp4530
(dp4531
g74
(dp4532
g94
g95
ssg83
g4526
sg76
(lp4533
S'files'
p4534
asbag69
(g90
g71
NtRp4535
(dp4536
g74
(dp4537
g101
g102
ssg83
g4526
sg76
(lp4538
S':'
asbag69
(g90
g71
NtRp4539
(dp4540
g74
(dp4541
sg83
g4526
sg76
(lp4542
g69
(g70
g71
NtRp4543
(dp4544
g74
(dp4545
g82
I5
ssg83
g4539
sg76
(lp4546
g69
(g78
g71
NtRp4547
(dp4548
g74
(dp4549
g82
I4
ssg83
Nsg76
(lp4550
sbasbasbasbag69
(g85
g71
NtRp4551
(dp4552
g74
(dp4553
sg83
g4241
sg76
(lp4554
g69
(g90
g71
NtRp4555
(dp4556
g74
(dp4557
g94
g95
ssg83
g4551
sg76
(lp4558
S'flash'
p4559
asbag69
(g90
g71
NtRp4560
(dp4561
g74
(dp4562
g101
g102
ssg83
g4551
sg76
(lp4563
S':'
asbag69
(g90
g71
NtRp4564
(dp4565
g74
(dp4566
sg83
g4551
sg76
(lp4567
g69
(g70
g71
NtRp4568
(dp4569
g74
(dp4570
g82
I5
ssg83
g4564
sg76
(lp4571
S''
asbasbasbag69
(g85
g71
NtRp4572
(dp4573
g74
(dp4574
sg83
g4241
sg76
(lp4575
g69
(g90
g71
NtRp4576
(dp4577
g74
(dp4578
g94
g95
ssg83
g4572
sg76
(lp4579
S'generic_patterns'
p4580
asbag69
(g90
g71
NtRp4581
(dp4582
g74
(dp4583
g101
g102
ssg83
g4572
sg76
(lp4584
S':'
asbag69
(g90
g71
NtRp4585
(dp4586
g74
(dp4587
sg83
g4572
sg76
(lp4588
g69
(g70
g71
NtRp4589
(dp4590
g74
(dp4591
g82
I5
ssg83
g4585
sg76
(lp4592
g69
(g78
g71
NtRp4593
(dp4594
g74
(dp4595
g82
I4
ssg83
Nsg76
(lp4596
sbasbasbasbag69
(g85
g71
NtRp4597
(dp4598
g74
(dp4599
sg83
g4241
sg76
(lp4600
g69
(g90
g71
NtRp4601
(dp4602
g74
(dp4603
g94
g95
ssg83
g4597
sg76
(lp4604
S'headers'
p4605
asbag69
(g90
g71
NtRp4606
(dp4607
g74
(dp4608
g101
g102
ssg83
g4597
sg76
(lp4609
S':'
asbag69
(g90
g71
NtRp4610
(dp4611
g74
(dp4612
sg83
g4597
sg76
(lp4613
g69
(g70
g71
NtRp4614
(dp4615
g74
(dp4616
g82
I5
ssg83
g4610
sg76
(lp4617
g69
(g78
g71
NtRp4618
(dp4619
g74
(dp4620
g82
I4
ssg83
Nsg76
(lp4621
g69
(g85
g71
NtRp4622
(dp4623
g74
(dp4624
sg83
g4618
sg76
(lp4625
g69
(g90
g71
NtRp4626
(dp4627
g74
(dp4628
g94
g95
ssg83
g4622
sg76
(lp4629
S'X-Powered-By'
p4630
asbag69
(g90
g71
NtRp4631
(dp4632
g74
(dp4633
g101
g102
ssg83
g4622
sg76
(lp4634
S':'
asbag69
(g90
g71
NtRp4635
(dp4636
g74
(dp4637
sg83
g4622
sg76
(lp4638
g69
(g70
g71
NtRp4639
(dp4640
g74
(dp4641
g82
I4
ssg83
g4635
sg76
(lp4642
S'web2py'
p4643
asbasbasbasbasbasbasbag69
(g85
g71
NtRp4644
(dp4645
g74
(dp4646
sg83
g4241
sg76
(lp4647
g69
(g90
g71
NtRp4648
(dp4649
g74
(dp4650
g94
g95
ssg83
g4644
sg76
(lp4651
S'menu'
p4652
asbag69
(g90
g71
NtRp4653
(dp4654
g74
(dp4655
g101
g102
ssg83
g4644
sg76
(lp4656
S':'
asbag69
(g90
g71
NtRp4657
(dp4658
g74
(dp4659
sg83
g4644
sg76
(lp4660
g69
(g70
g71
NtRp4661
(dp4662
g74
(dp4663
g82
I5
ssg83
g4657
sg76
(lp4664
g69
(g78
g71
NtRp4665
(dp4666
g74
(dp4667
g82
I4
ssg83
Nsg76
(lp4668
sbasbasbasbag69
(g85
g71
NtRp4669
(dp4670
g74
(dp4671
sg83
g4241
sg76
(lp4672
g69
(g90
g71
NtRp4673
(dp4674
g74
(dp4675
g94
g95
ssg83
g4669
sg76
(lp4676
S'meta'
p4677
asbag69
(g90
g71
NtRp4678
(dp4679
g74
(dp4680
g101
g102
ssg83
g4669
sg76
(lp4681
S':'
asbag69
(g90
g71
NtRp4682
(dp4683
g74
(dp4684
sg83
g4669
sg76
(lp4685
g69
(g70
g71
NtRp4686
(dp4687
g74
(dp4688
g82
I5
ssg83
g4682
sg76
(lp4689
g69
(g78
g71
NtRp4690
(dp4691
g74
(dp4692
g82
I4
ssg83
Nsg76
(lp4693
sbasbasbasbag69
(g85
g71
NtRp4694
(dp4695
g74
(dp4696
sg83
g4241
sg76
(lp4697
g69
(g90
g71
NtRp4698
(dp4699
g74
(dp4700
g94
g95
ssg83
g4694
sg76
(lp4701
S'models_to_run'
p4702
asbag69
(g90
g71
NtRp4703
(dp4704
g74
(dp4705
g101
g102
ssg83
g4694
sg76
(lp4706
S':'
asbag69
(g90
g71
NtRp4707
(dp4708
g74
(dp4709
sg83
g4694
sg76
(lp4710
g69
(g70
g71
NtRp4711
(dp4712
g74
(dp4713
g82
I5
ssg83
g4707
sg76
(lp4714
g69
(g78
g71
NtRp4715
(dp4716
g74
(dp4717
g82
I4
ssg83
Nsg76
(lp4718
g69
(g85
g71
NtRp4719
(dp4720
g74
(dp4721
sg83
g4715
sg76
(lp4722
g69
(g90
g71
NtRp4723
(dp4724
g74
(dp4725
sg83
g4719
sg76
(lp4726
g69
(g70
g71
NtRp4727
(dp4728
g74
(dp4729
g82
I4
ssg83
g4723
sg76
(lp4730
S'^\\w+\\.py$'
p4731
asbasbasbag69
(g85
g71
NtRp4732
(dp4733
g74
(dp4734
sg83
g4715
sg76
(lp4735
g69
(g90
g71
NtRp4736
(dp4737
g74
(dp4738
sg83
g4732
sg76
(lp4739
g69
(g70
g71
NtRp4740
(dp4741
g74
(dp4742
g82
I4
ssg83
g4736
sg76
(lp4743
S'^default/\\w+\\.py$'
p4744
asbasbasbag69
(g85
g71
NtRp4745
(dp4746
g74
(dp4747
sg83
g4715
sg76
(lp4748
g69
(g90
g71
NtRp4749
(dp4750
g74
(dp4751
sg83
g4745
sg76
(lp4752
g69
(g70
g71
NtRp4753
(dp4754
g74
(dp4755
g82
I4
ssg83
g4749
sg76
(lp4756
S'^default/data/\\w+\\.py$'
p4757
asbasbasbasbasbasbasbag69
(g85
g71
NtRp4758
(dp4759
g74
(dp4760
sg83
g4241
sg76
(lp4761
g69
(g90
g71
NtRp4762
(dp4763
g74
(dp4764
g94
g95
ssg83
g4758
sg76
(lp4765
S'postprocessing'
p4766
asbag69
(g90
g71
NtRp4767
(dp4768
g74
(dp4769
g101
g102
ssg83
g4758
sg76
(lp4770
S':'
asbag69
(g90
g71
NtRp4771
(dp4772
g74
(dp4773
sg83
g4758
sg76
(lp4774
g69
(g70
g71
NtRp4775
(dp4776
g74
(dp4777
g82
I5
ssg83
g4771
sg76
(lp4778
g69
(g78
g71
NtRp4779
(dp4780
g74
(dp4781
g82
I4
ssg83
Nsg76
(lp4782
sbasbasbasbag69
(g85
g71
NtRp4783
(dp4784
g74
(dp4785
sg83
g4241
sg76
(lp4786
g69
(g90
g71
NtRp4787
(dp4788
g74
(dp4789
g94
g95
ssg83
g4783
sg76
(lp4790
S'session_file'
p4791
asbag69
(g90
g71
NtRp4792
(dp4793
g74
(dp4794
g101
g102
ssg83
g4783
sg76
(lp4795
S':'
asbag69
(g90
g71
NtRp4796
(dp4797
g74
(dp4798
sg83
g4783
sg76
(lp4799
g69
(g70
g71
NtRp4800
(dp4801
g74
(dp4802
g82
I5
ssg83
g4796
sg76
(lp4803
S"<open file '/Users/joselara/www/web2py/applications/randomwords/sessions/127.0.0.1-0bd8aba9-4c26-4c3e-ba38-4feb8157de7a', mode 'rb+' at 0x10d0d1390>"
p4804
asbasbasbag69
(g85
g71
NtRp4805
(dp4806
g74
(dp4807
sg83
g4241
sg76
(lp4808
g69
(g90
g71
NtRp4809
(dp4810
g74
(dp4811
g94
g95
ssg83
g4805
sg76
(lp4812
S'session_filename'
p4813
asbag69
(g90
g71
NtRp4814
(dp4815
g74
(dp4816
g101
g102
ssg83
g4805
sg76
(lp4817
S':'
asbag69
(g90
g71
NtRp4818
(dp4819
g74
(dp4820
sg83
g4805
sg76
(lp4821
g69
(g70
g71
NtRp4822
(dp4823
g74
(dp4824
g82
I5
ssg83
g4818
sg76
(lp4825
S'/Users/joselara/www/web2py/applications/randomwords/sessions/127.0.0.1-0bd8aba9-4c26-4c3e-ba38-4feb8157de7a'
p4826
asbasbasbag69
(g85
g71
NtRp4827
(dp4828
g74
(dp4829
sg83
g4241
sg76
(lp4830
g69
(g90
g71
NtRp4831
(dp4832
g74
(dp4833
g94
g95
ssg83
g4827
sg76
(lp4834
S'session_id'
p4835
asbag69
(g90
g71
NtRp4836
(dp4837
g74
(dp4838
g101
g102
ssg83
g4827
sg76
(lp4839
S':'
asbag69
(g90
g71
NtRp4840
(dp4841
g74
(dp4842
sg83
g4827
sg76
(lp4843
g69
(g70
g71
NtRp4844
(dp4845
g74
(dp4846
g82
I5
ssg83
g4840
sg76
(lp4847
g673
asbasbasbag69
(g85
g71
NtRp4848
(dp4849
g74
(dp4850
sg83
g4241
sg76
(lp4851
g69
(g90
g71
NtRp4852
(dp4853
g74
(dp4854
g94
g95
ssg83
g4848
sg76
(lp4855
S'session_id_name'
p4856
asbag69
(g90
g71
NtRp4857
(dp4858
g74
(dp4859
g101
g102
ssg83
g4848
sg76
(lp4860
S':'
asbag69
(g90
g71
NtRp4861
(dp4862
g74
(dp4863
sg83
g4848
sg76
(lp4864
g69
(g70
g71
NtRp4865
(dp4866
g74
(dp4867
g82
I5
ssg83
g4861
sg76
(lp4868
g4298
asbasbasbag69
(g85
g71
NtRp4869
(dp4870
g74
(dp4871
sg83
g4241
sg76
(lp4872
g69
(g90
g71
NtRp4873
(dp4874
g74
(dp4875
g94
g95
ssg83
g4869
sg76
(lp4876
S'session_locked'
p4877
asbag69
(g90
g71
NtRp4878
(dp4879
g74
(dp4880
g101
g102
ssg83
g4869
sg76
(lp4881
S':'
asbag69
(g90
g71
NtRp4882
(dp4883
g74
(dp4884
sg83
g4869
sg76
(lp4885
g69
(g70
g71
NtRp4886
(dp4887
g74
(dp4888
g82
I5
ssg83
g4882
sg76
(lp4889
g112
asbasbasbag69
(g85
g71
NtRp4890
(dp4891
g74
(dp4892
sg83
g4241
sg76
(lp4893
g69
(g90
g71
NtRp4894
(dp4895
g74
(dp4896
g94
g95
ssg83
g4890
sg76
(lp4897
S'session_new'
p4898
asbag69
(g90
g71
NtRp4899
(dp4900
g74
(dp4901
g101
g102
ssg83
g4890
sg76
(lp4902
S':'
asbag69
(g90
g71
NtRp4903
(dp4904
g74
(dp4905
sg83
g4890
sg76
(lp4906
g69
(g70
g71
NtRp4907
(dp4908
g74
(dp4909
g82
I5
ssg83
g4903
sg76
(lp4910
g1157
asbasbasbag69
(g85
g71
NtRp4911
(dp4912
g74
(dp4913
sg83
g4241
sg76
(lp4914
g69
(g90
g71
NtRp4915
(dp4916
g74
(dp4917
g94
g95
ssg83
g4911
sg76
(lp4918
S'status'
p4919
asbag69
(g90
g71
NtRp4920
(dp4921
g74
(dp4922
g101
g102
ssg83
g4911
sg76
(lp4923
S':'
asbag69
(g90
g71
NtRp4924
(dp4925
g74
(dp4926
sg83
g4911
sg76
(lp4927
g69
(g70
g71
NtRp4928
(dp4929
g74
(dp4930
g82
I5
ssg83
g4924
sg76
(lp4931
S'200'
p4932
asbasbasbag69
(g85
g71
NtRp4933
(dp4934
g74
(dp4935
sg83
g4241
sg76
(lp4936
g69
(g90
g71
NtRp4937
(dp4938
g74
(dp4939
g94
g95
ssg83
g4933
sg76
(lp4940
S'view'
p4941
asbag69
(g90
g71
NtRp4942
(dp4943
g74
(dp4944
g101
g102
ssg83
g4933
sg76
(lp4945
S':'
asbag69
(g90
g71
NtRp4946
(dp4947
g74
(dp4948
sg83
g4933
sg76
(lp4949
g69
(g70
g71
NtRp4950
(dp4951
g74
(dp4952
g82
I5
ssg83
g4946
sg76
(lp4953
S'default/data.html'
p4954
asbasbasbasbasbsS'locals'
p4955
(dp4956
g4
S"'/Users/joselara/www/web2py/applications/randomwords/controllers/default.py'"
p4957
sg6
S"'# -*- coding: utf-8 -*-\\n# this file is released ...).xml()\\n\\n\\n\\nresponse._vars=response._caller(data)\\n'"
p4958
sssS'traceback'
p4959
S'Traceback (most recent call last):\n  File "/Users/joselara/www/web2py/gluon/restricted.py", line 208, in restricted\n    ccode = compile2(code,layer)\n  File "/Users/joselara/www/web2py/gluon/restricted.py", line 193, in compile2\n    return compile(code.rstrip().replace(\'\\r\\n\',\'\\n\')+\'\\n\', layer, \'exec\')\n  File "/Users/joselara/www/web2py/applications/randomwords/controllers/default.py", line 17\n    word_id = db.word.id\n                       ^\nIndentationError: unindent does not match any outer indentation level\n'
p4960
s.